ARM GAS  C:\Users\jisu8\AppData\Local\Temp\ccE3dEQ8.s 			page 1


   1              		.cpu cortex-m0
   2              		.arch armv6s-m
   3              		.fpu softvfp
   4              		.eabi_attribute 20, 1
   5              		.eabi_attribute 21, 1
   6              		.eabi_attribute 23, 3
   7              		.eabi_attribute 24, 1
   8              		.eabi_attribute 25, 1
   9              		.eabi_attribute 26, 1
  10              		.eabi_attribute 30, 1
  11              		.eabi_attribute 34, 0
  12              		.eabi_attribute 18, 4
  13              		.file	"co2.c"
  14              		.text
  15              	.Ltext0:
  16              		.cfi_sections	.debug_frame
  17              		.section	.text.CO2_ReadData,"ax",%progbits
  18              		.align	1
  19              		.syntax unified
  20              		.code	16
  21              		.thumb_func
  23              	CO2_ReadData:
  24              	.LFB42:
  25              		.file 1 "Core/Src/co2.c"
   1:Core/Src/co2.c **** #include "co2.h"
   2:Core/Src/co2.c **** 
   3:Core/Src/co2.c **** uint8 CO2_Address;
   4:Core/Src/co2.c **** uint8 CO2_Data_w;
   5:Core/Src/co2.c **** uint8 CO2_Data[8];
   6:Core/Src/co2.c **** 
   7:Core/Src/co2.c **** uint16 CO2_Data16;
   8:Core/Src/co2.c **** uint16 TVOC_Data16;
   9:Core/Src/co2.c **** static void CO2_FindAddress(void);
  10:Core/Src/co2.c **** static void CO2_ReadData(void);
  11:Core/Src/co2.c **** 
  12:Core/Src/co2.c **** void CO2_Init(void)
  13:Core/Src/co2.c **** {
  14:Core/Src/co2.c ****     CO2_Data_w = 0xF4;
  15:Core/Src/co2.c ****     HAL_I2C_Master_Transmit(&CO2_HW_MODULE,(CO2_ADDRESS<<1),&CO2_Data_w,1,1000);
  16:Core/Src/co2.c ****     CO2_Data_w = 0x10;
  17:Core/Src/co2.c ****     HAL_I2C_Mem_Write(&CO2_HW_MODULE,(CO2_ADDRESS<<1),CO2_ADDRESS_MEAS_MODE,1,&CO2_Data_w,1,1000);
  18:Core/Src/co2.c ****     return;
  19:Core/Src/co2.c **** }
  20:Core/Src/co2.c **** 
  21:Core/Src/co2.c **** void CO2_Communication(void)
  22:Core/Src/co2.c **** {
  23:Core/Src/co2.c ****     CO2_ReadData();
  24:Core/Src/co2.c ****     return;
  25:Core/Src/co2.c **** }
  26:Core/Src/co2.c **** 
  27:Core/Src/co2.c **** static void CO2_ReadData(void)
  28:Core/Src/co2.c **** {
  26              		.loc 1 28 1 view -0
  27              		.cfi_startproc
  28              		@ args = 0, pretend = 0, frame = 0
  29              		@ frame_needed = 0, uses_anonymous_args = 0
  30 0000 10B5     		push	{r4, lr}
ARM GAS  C:\Users\jisu8\AppData\Local\Temp\ccE3dEQ8.s 			page 2


  31              	.LCFI0:
  32              		.cfi_def_cfa_offset 8
  33              		.cfi_offset 4, -8
  34              		.cfi_offset 14, -4
  35 0002 84B0     		sub	sp, sp, #16
  36              	.LCFI1:
  37              		.cfi_def_cfa_offset 24
  29:Core/Src/co2.c ****     HAL_I2C_Mem_Read(&CO2_HW_MODULE,(CO2_ADDRESS<<1),CO2_ADDRESS_ALG_RESULT_DATA,1,CO2_Data,8,100);
  38              		.loc 1 29 5 view .LVU1
  39 0004 6423     		movs	r3, #100
  40 0006 0293     		str	r3, [sp, #8]
  41 0008 5C3B     		subs	r3, r3, #92
  42 000a 0193     		str	r3, [sp, #4]
  43 000c 0A4C     		ldr	r4, .L2
  44 000e 0094     		str	r4, [sp]
  45 0010 073B     		subs	r3, r3, #7
  46 0012 0222     		movs	r2, #2
  47 0014 B421     		movs	r1, #180
  48 0016 0948     		ldr	r0, .L2+4
  49 0018 FFF7FEFF 		bl	HAL_I2C_Mem_Read
  50              	.LVL0:
  30:Core/Src/co2.c ****     CO2_Data16 = (CO2_Data[0]<<8) | (CO2_Data[1]);
  51              		.loc 1 30 5 view .LVU2
  52              		.loc 1 30 27 is_stmt 0 view .LVU3
  53 001c 2278     		ldrb	r2, [r4]
  54              		.loc 1 30 30 view .LVU4
  55 001e 1202     		lsls	r2, r2, #8
  56              		.loc 1 30 46 view .LVU5
  57 0020 6378     		ldrb	r3, [r4, #1]
  58              		.loc 1 30 35 view .LVU6
  59 0022 1343     		orrs	r3, r2
  60              		.loc 1 30 16 view .LVU7
  61 0024 064A     		ldr	r2, .L2+8
  62 0026 1380     		strh	r3, [r2]
  31:Core/Src/co2.c ****     TVOC_Data16 = (CO2_Data[2]<<8) | (CO2_Data[3]); 
  63              		.loc 1 31 5 is_stmt 1 view .LVU8
  64              		.loc 1 31 28 is_stmt 0 view .LVU9
  65 0028 A278     		ldrb	r2, [r4, #2]
  66              		.loc 1 31 31 view .LVU10
  67 002a 1202     		lsls	r2, r2, #8
  68              		.loc 1 31 47 view .LVU11
  69 002c E378     		ldrb	r3, [r4, #3]
  70              		.loc 1 31 36 view .LVU12
  71 002e 1343     		orrs	r3, r2
  72              		.loc 1 31 17 view .LVU13
  73 0030 044A     		ldr	r2, .L2+12
  74 0032 1380     		strh	r3, [r2]
  32:Core/Src/co2.c **** }
  75              		.loc 1 32 1 view .LVU14
  76 0034 04B0     		add	sp, sp, #16
  77              		@ sp needed
  78 0036 10BD     		pop	{r4, pc}
  79              	.L3:
  80              		.align	2
  81              	.L2:
  82 0038 00000000 		.word	.LANCHOR0
  83 003c 00000000 		.word	hi2c1
ARM GAS  C:\Users\jisu8\AppData\Local\Temp\ccE3dEQ8.s 			page 3


  84 0040 00000000 		.word	.LANCHOR1
  85 0044 00000000 		.word	.LANCHOR2
  86              		.cfi_endproc
  87              	.LFE42:
  89              		.section	.text.CO2_Init,"ax",%progbits
  90              		.align	1
  91              		.global	CO2_Init
  92              		.syntax unified
  93              		.code	16
  94              		.thumb_func
  96              	CO2_Init:
  97              	.LFB40:
  13:Core/Src/co2.c ****     CO2_Data_w = 0xF4;
  98              		.loc 1 13 1 is_stmt 1 view -0
  99              		.cfi_startproc
 100              		@ args = 0, pretend = 0, frame = 0
 101              		@ frame_needed = 0, uses_anonymous_args = 0
 102 0000 70B5     		push	{r4, r5, r6, lr}
 103              	.LCFI2:
 104              		.cfi_def_cfa_offset 16
 105              		.cfi_offset 4, -16
 106              		.cfi_offset 5, -12
 107              		.cfi_offset 6, -8
 108              		.cfi_offset 14, -4
 109 0002 84B0     		sub	sp, sp, #16
 110              	.LCFI3:
 111              		.cfi_def_cfa_offset 32
  14:Core/Src/co2.c ****     HAL_I2C_Master_Transmit(&CO2_HW_MODULE,(CO2_ADDRESS<<1),&CO2_Data_w,1,1000);
 112              		.loc 1 14 5 view .LVU16
  14:Core/Src/co2.c ****     HAL_I2C_Master_Transmit(&CO2_HW_MODULE,(CO2_ADDRESS<<1),&CO2_Data_w,1,1000);
 113              		.loc 1 14 16 is_stmt 0 view .LVU17
 114 0004 0C4C     		ldr	r4, .L5
 115 0006 F423     		movs	r3, #244
 116 0008 2370     		strb	r3, [r4]
  15:Core/Src/co2.c ****     CO2_Data_w = 0x10;
 117              		.loc 1 15 5 is_stmt 1 view .LVU18
 118 000a 0C4D     		ldr	r5, .L5+4
 119 000c FA26     		movs	r6, #250
 120 000e B600     		lsls	r6, r6, #2
 121 0010 0096     		str	r6, [sp]
 122 0012 F33B     		subs	r3, r3, #243
 123 0014 2200     		movs	r2, r4
 124 0016 B421     		movs	r1, #180
 125 0018 2800     		movs	r0, r5
 126 001a FFF7FEFF 		bl	HAL_I2C_Master_Transmit
 127              	.LVL1:
  16:Core/Src/co2.c ****     HAL_I2C_Mem_Write(&CO2_HW_MODULE,(CO2_ADDRESS<<1),CO2_ADDRESS_MEAS_MODE,1,&CO2_Data_w,1,1000);
 128              		.loc 1 16 5 view .LVU19
  16:Core/Src/co2.c ****     HAL_I2C_Mem_Write(&CO2_HW_MODULE,(CO2_ADDRESS<<1),CO2_ADDRESS_MEAS_MODE,1,&CO2_Data_w,1,1000);
 129              		.loc 1 16 16 is_stmt 0 view .LVU20
 130 001e 1023     		movs	r3, #16
 131 0020 2370     		strb	r3, [r4]
  17:Core/Src/co2.c ****     return;
 132              		.loc 1 17 5 is_stmt 1 view .LVU21
 133 0022 0296     		str	r6, [sp, #8]
 134 0024 0F3B     		subs	r3, r3, #15
 135 0026 0193     		str	r3, [sp, #4]
ARM GAS  C:\Users\jisu8\AppData\Local\Temp\ccE3dEQ8.s 			page 4


 136 0028 0094     		str	r4, [sp]
 137 002a 0122     		movs	r2, #1
 138 002c B421     		movs	r1, #180
 139 002e 2800     		movs	r0, r5
 140 0030 FFF7FEFF 		bl	HAL_I2C_Mem_Write
 141              	.LVL2:
  18:Core/Src/co2.c **** }
 142              		.loc 1 18 5 view .LVU22
  19:Core/Src/co2.c **** 
 143              		.loc 1 19 1 is_stmt 0 view .LVU23
 144 0034 04B0     		add	sp, sp, #16
 145              		@ sp needed
 146 0036 70BD     		pop	{r4, r5, r6, pc}
 147              	.L6:
 148              		.align	2
 149              	.L5:
 150 0038 00000000 		.word	.LANCHOR3
 151 003c 00000000 		.word	hi2c1
 152              		.cfi_endproc
 153              	.LFE40:
 155              		.section	.text.CO2_Communication,"ax",%progbits
 156              		.align	1
 157              		.global	CO2_Communication
 158              		.syntax unified
 159              		.code	16
 160              		.thumb_func
 162              	CO2_Communication:
 163              	.LFB41:
  22:Core/Src/co2.c ****     CO2_ReadData();
 164              		.loc 1 22 1 is_stmt 1 view -0
 165              		.cfi_startproc
 166              		@ args = 0, pretend = 0, frame = 0
 167              		@ frame_needed = 0, uses_anonymous_args = 0
 168 0000 10B5     		push	{r4, lr}
 169              	.LCFI4:
 170              		.cfi_def_cfa_offset 8
 171              		.cfi_offset 4, -8
 172              		.cfi_offset 14, -4
  23:Core/Src/co2.c ****     return;
 173              		.loc 1 23 5 view .LVU25
 174 0002 FFF7FEFF 		bl	CO2_ReadData
 175              	.LVL3:
  24:Core/Src/co2.c **** }
 176              		.loc 1 24 5 view .LVU26
  25:Core/Src/co2.c **** 
 177              		.loc 1 25 1 is_stmt 0 view .LVU27
 178              		@ sp needed
 179 0006 10BD     		pop	{r4, pc}
 180              		.cfi_endproc
 181              	.LFE41:
 183              		.global	TVOC_Data16
 184              		.global	CO2_Data16
 185              		.global	CO2_Data
 186              		.global	CO2_Data_w
 187              		.global	CO2_Address
 188              		.section	.bss.CO2_Address,"aw",%nobits
 191              	CO2_Address:
ARM GAS  C:\Users\jisu8\AppData\Local\Temp\ccE3dEQ8.s 			page 5


 192 0000 00       		.space	1
 193              		.section	.bss.CO2_Data,"aw",%nobits
 194              		.align	2
 195              		.set	.LANCHOR0,. + 0
 198              	CO2_Data:
 199 0000 00000000 		.space	8
 199      00000000 
 200              		.section	.bss.CO2_Data16,"aw",%nobits
 201              		.align	1
 202              		.set	.LANCHOR1,. + 0
 205              	CO2_Data16:
 206 0000 0000     		.space	2
 207              		.section	.bss.CO2_Data_w,"aw",%nobits
 208              		.set	.LANCHOR3,. + 0
 211              	CO2_Data_w:
 212 0000 00       		.space	1
 213              		.section	.bss.TVOC_Data16,"aw",%nobits
 214              		.align	1
 215              		.set	.LANCHOR2,. + 0
 218              	TVOC_Data16:
 219 0000 0000     		.space	2
 220              		.text
 221              	.Letext0:
 222              		.file 2 "d:\\3.tools\\arm_gcc_toolchain\\arm-none-eabi\\include\\machine\\_default_types.h"
 223              		.file 3 "d:\\3.tools\\arm_gcc_toolchain\\arm-none-eabi\\include\\sys\\_stdint.h"
 224              		.file 4 "Drivers/CMSIS/Device/ST/STM32F0xx/Include/stm32f030x6.h"
 225              		.file 5 "Drivers/STM32F0xx_HAL_Driver/Inc/stm32f0xx_hal_def.h"
 226              		.file 6 "Drivers/STM32F0xx_HAL_Driver/Inc/stm32f0xx_hal_dma.h"
 227              		.file 7 "Drivers/STM32F0xx_HAL_Driver/Inc/stm32f0xx_hal_i2c.h"
 228              		.file 8 "Core/Inc/vardef.h"
 229              		.file 9 "Core/Inc/main.h"
 230              		.file 10 "Core/Inc/co2.h"
ARM GAS  C:\Users\jisu8\AppData\Local\Temp\ccE3dEQ8.s 			page 6

