ARM GAS  C:\Users\jisu8\AppData\Local\Temp\ccDqzbcz.s 			page 1


   1              		.cpu cortex-m0
   2              		.arch armv6s-m
   3              		.fpu softvfp
   4              		.eabi_attribute 20, 1
   5              		.eabi_attribute 21, 1
   6              		.eabi_attribute 23, 3
   7              		.eabi_attribute 24, 1
   8              		.eabi_attribute 25, 1
   9              		.eabi_attribute 26, 1
  10              		.eabi_attribute 30, 1
  11              		.eabi_attribute 34, 0
  12              		.eabi_attribute 18, 4
  13              		.file	"eeprom.c"
  14              		.text
  15              	.Ltext0:
  16              		.cfi_sections	.debug_frame
  17              		.section	.text.EEPROM_Write,"ax",%progbits
  18              		.align	1
  19              		.global	EEPROM_Write
  20              		.syntax unified
  21              		.code	16
  22              		.thumb_func
  24              	EEPROM_Write:
  25              	.LFB40:
  26              		.file 1 "Core/Src/eeprom.c"
   1:Core/Src/eeprom.c **** #include "eeprom.h"
   2:Core/Src/eeprom.c **** #include "switch.h"
   3:Core/Src/eeprom.c **** 
   4:Core/Src/eeprom.c **** uint8 switch_submodeEEP = 0;
   5:Core/Src/eeprom.c **** sint16 switch_trg_tempEEP = 0;
   6:Core/Src/eeprom.c **** sint16 switch_trg_timeEEP = 0;
   7:Core/Src/eeprom.c **** sint16 switch_idle_tempEEP = 0;
   8:Core/Src/eeprom.c **** static uint8 EEPROM_Write_Counter = 0;
   9:Core/Src/eeprom.c **** static uint32 EEPROM_Write_Address = EEPROM_PAGE31_START;
  10:Core/Src/eeprom.c **** 
  11:Core/Src/eeprom.c **** void EEPROM_Write(void)
  12:Core/Src/eeprom.c **** {
  27              		.loc 1 12 1 view -0
  28              		.cfi_startproc
  29              		@ args = 0, pretend = 0, frame = 16
  30              		@ frame_needed = 0, uses_anonymous_args = 0
  31 0000 30B5     		push	{r4, r5, lr}
  32              	.LCFI0:
  33              		.cfi_def_cfa_offset 12
  34              		.cfi_offset 4, -12
  35              		.cfi_offset 5, -8
  36              		.cfi_offset 14, -4
  37 0002 85B0     		sub	sp, sp, #20
  38              	.LCFI1:
  39              		.cfi_def_cfa_offset 32
  13:Core/Src/eeprom.c ****     uint16 data[8] = {0};
  40              		.loc 1 13 5 view .LVU1
  41              		.loc 1 13 12 is_stmt 0 view .LVU2
  42 0004 1022     		movs	r2, #16
  43 0006 0021     		movs	r1, #0
  44 0008 6846     		mov	r0, sp
  45 000a FFF7FEFF 		bl	memset
ARM GAS  C:\Users\jisu8\AppData\Local\Temp\ccDqzbcz.s 			page 2


  46              	.LVL0:
  14:Core/Src/eeprom.c ****     data[0] = (uint16)switch_submode;
  47              		.loc 1 14 5 is_stmt 1 view .LVU3
  48              		.loc 1 14 15 is_stmt 0 view .LVU4
  49 000e 164B     		ldr	r3, .L3
  50 0010 1B78     		ldrb	r3, [r3]
  51              		.loc 1 14 13 view .LVU5
  52 0012 6A46     		mov	r2, sp
  53 0014 1380     		strh	r3, [r2]
  15:Core/Src/eeprom.c ****     data[1] = (uint16)switch_trg_temp;
  54              		.loc 1 15 5 is_stmt 1 view .LVU6
  55              		.loc 1 15 15 is_stmt 0 view .LVU7
  56 0016 154B     		ldr	r3, .L3+4
  57 0018 1B88     		ldrh	r3, [r3]
  58              		.loc 1 15 13 view .LVU8
  59 001a 5380     		strh	r3, [r2, #2]
  16:Core/Src/eeprom.c ****     data[2] = (uint16)switch_trg_time;
  60              		.loc 1 16 5 is_stmt 1 view .LVU9
  61              		.loc 1 16 15 is_stmt 0 view .LVU10
  62 001c 144B     		ldr	r3, .L3+8
  63 001e 1B88     		ldrh	r3, [r3]
  64              		.loc 1 16 13 view .LVU11
  65 0020 9380     		strh	r3, [r2, #4]
  17:Core/Src/eeprom.c ****     data[3] = (uint16)switch_idle_temp;
  66              		.loc 1 17 5 is_stmt 1 view .LVU12
  67              		.loc 1 17 15 is_stmt 0 view .LVU13
  68 0022 144B     		ldr	r3, .L3+12
  69 0024 1B88     		ldrh	r3, [r3]
  70              		.loc 1 17 13 view .LVU14
  71 0026 D380     		strh	r3, [r2, #6]
  18:Core/Src/eeprom.c ****     /* Unlock to control */
  19:Core/Src/eeprom.c ****     HAL_FLASH_Unlock();
  72              		.loc 1 19 5 is_stmt 1 view .LVU15
  73 0028 FFF7FEFF 		bl	HAL_FLASH_Unlock
  74              	.LVL1:
  20:Core/Src/eeprom.c **** 
  21:Core/Src/eeprom.c ****     /* Writing data to flash memory */
  22:Core/Src/eeprom.c ****     HAL_FLASH_Program(FLASH_TYPEPROGRAM_HALFWORD, EEPROM_Write_Address, data[EEPROM_Write_Counter])
  75              		.loc 1 22 5 view .LVU16
  76              		.loc 1 22 77 is_stmt 0 view .LVU17
  77 002c 124C     		ldr	r4, .L3+16
  78 002e 2378     		ldrb	r3, [r4]
  79 0030 5B00     		lsls	r3, r3, #1
  80 0032 6A46     		mov	r2, sp
  81 0034 9A5A     		ldrh	r2, [r3, r2]
  82              		.loc 1 22 5 view .LVU18
  83 0036 114D     		ldr	r5, .L3+20
  84 0038 0023     		movs	r3, #0
  85 003a 2968     		ldr	r1, [r5]
  86 003c 0120     		movs	r0, #1
  87 003e FFF7FEFF 		bl	HAL_FLASH_Program
  88              	.LVL2:
  23:Core/Src/eeprom.c ****     EEPROM_Write_Address += 0x02;
  89              		.loc 1 23 5 is_stmt 1 view .LVU19
  90              		.loc 1 23 26 is_stmt 0 view .LVU20
  91 0042 2B68     		ldr	r3, [r5]
  92 0044 0233     		adds	r3, r3, #2
ARM GAS  C:\Users\jisu8\AppData\Local\Temp\ccDqzbcz.s 			page 3


  93 0046 2B60     		str	r3, [r5]
  24:Core/Src/eeprom.c **** 
  25:Core/Src/eeprom.c ****     /* Lock flash control register */
  26:Core/Src/eeprom.c ****     HAL_FLASH_Lock();
  94              		.loc 1 26 5 is_stmt 1 view .LVU21
  95 0048 FFF7FEFF 		bl	HAL_FLASH_Lock
  96              	.LVL3:
  27:Core/Src/eeprom.c ****     EEPROM_Write_Counter++;
  97              		.loc 1 27 5 view .LVU22
  98              		.loc 1 27 25 is_stmt 0 view .LVU23
  99 004c 2378     		ldrb	r3, [r4]
 100 004e 0133     		adds	r3, r3, #1
 101 0050 DBB2     		uxtb	r3, r3
 102 0052 2370     		strb	r3, [r4]
  28:Core/Src/eeprom.c ****     if(EEPROM_Write_Counter>7)
 103              		.loc 1 28 5 is_stmt 1 view .LVU24
 104              		.loc 1 28 7 is_stmt 0 view .LVU25
 105 0054 072B     		cmp	r3, #7
 106 0056 05D9     		bls	.L1
  29:Core/Src/eeprom.c ****     {
  30:Core/Src/eeprom.c ****         EEPROM_Write_Counter = 0;
 107              		.loc 1 30 9 is_stmt 1 view .LVU26
 108              		.loc 1 30 30 is_stmt 0 view .LVU27
 109 0058 074B     		ldr	r3, .L3+16
 110 005a 0022     		movs	r2, #0
 111 005c 1A70     		strb	r2, [r3]
  31:Core/Src/eeprom.c ****         EEPROM_Write_Address = EEPROM_PAGE31_START;
 112              		.loc 1 31 9 is_stmt 1 view .LVU28
 113              		.loc 1 31 30 is_stmt 0 view .LVU29
 114 005e 074B     		ldr	r3, .L3+20
 115 0060 074A     		ldr	r2, .L3+24
 116 0062 1A60     		str	r2, [r3]
  32:Core/Src/eeprom.c ****     }
  33:Core/Src/eeprom.c **** 
  34:Core/Src/eeprom.c ****     return HAL_OK;
 117              		.loc 1 34 5 is_stmt 1 view .LVU30
 118              	.L1:
  35:Core/Src/eeprom.c **** }
 119              		.loc 1 35 1 is_stmt 0 view .LVU31
 120 0064 05B0     		add	sp, sp, #20
 121              		@ sp needed
 122 0066 30BD     		pop	{r4, r5, pc}
 123              	.L4:
 124              		.align	2
 125              	.L3:
 126 0068 00000000 		.word	switch_submode
 127 006c 00000000 		.word	switch_trg_temp
 128 0070 00000000 		.word	switch_trg_time
 129 0074 00000000 		.word	switch_idle_temp
 130 0078 00000000 		.word	.LANCHOR0
 131 007c 00000000 		.word	.LANCHOR1
 132 0080 007C0008 		.word	134249472
 133              		.cfi_endproc
 134              	.LFE40:
 136              		.section	.text.EEPROM_Read,"ax",%progbits
 137              		.align	1
 138              		.global	EEPROM_Read
ARM GAS  C:\Users\jisu8\AppData\Local\Temp\ccDqzbcz.s 			page 4


 139              		.syntax unified
 140              		.code	16
 141              		.thumb_func
 143              	EEPROM_Read:
 144              	.LFB41:
  36:Core/Src/eeprom.c **** void EEPROM_Read(void)
  37:Core/Src/eeprom.c **** {
 145              		.loc 1 37 1 is_stmt 1 view -0
 146              		.cfi_startproc
 147              		@ args = 0, pretend = 0, frame = 8
 148              		@ frame_needed = 0, uses_anonymous_args = 0
 149 0000 00B5     		push	{lr}
 150              	.LCFI2:
 151              		.cfi_def_cfa_offset 4
 152              		.cfi_offset 14, -4
 153 0002 83B0     		sub	sp, sp, #12
 154              	.LCFI3:
 155              		.cfi_def_cfa_offset 16
  38:Core/Src/eeprom.c ****     uint16 data[4] = {0,};
 156              		.loc 1 38 5 view .LVU33
 157              		.loc 1 38 12 is_stmt 0 view .LVU34
 158 0004 0822     		movs	r2, #8
 159 0006 0021     		movs	r1, #0
 160 0008 6846     		mov	r0, sp
 161 000a FFF7FEFF 		bl	memset
 162              	.LVL4:
  39:Core/Src/eeprom.c **** 
  40:Core/Src/eeprom.c ****     for(uint8 i = 0; i<8;i++)
 163              		.loc 1 40 5 is_stmt 1 view .LVU35
 164              	.LBB2:
 165              		.loc 1 40 9 view .LVU36
 166              		.loc 1 40 15 is_stmt 0 view .LVU37
 167 000e 0023     		movs	r3, #0
 168              		.loc 1 40 5 view .LVU38
 169 0010 01E0     		b	.L6
 170              	.LVL5:
 171              	.L7:
 172              		.loc 1 40 26 is_stmt 1 discriminator 2 view .LVU39
 173              		.loc 1 40 27 is_stmt 0 discriminator 2 view .LVU40
 174 0012 0133     		adds	r3, r3, #1
 175              	.LVL6:
 176              		.loc 1 40 27 discriminator 2 view .LVU41
 177 0014 DBB2     		uxtb	r3, r3
 178              	.LVL7:
 179              	.L6:
 180              		.loc 1 40 22 is_stmt 1 discriminator 1 view .LVU42
 181              		.loc 1 40 5 is_stmt 0 discriminator 1 view .LVU43
 182 0016 072B     		cmp	r3, #7
 183 0018 0AD8     		bhi	.L9
  41:Core/Src/eeprom.c ****     {
  42:Core/Src/eeprom.c ****         if((*(uint16*)(EEPROM_PAGE31_START+(i*2)) != 0))
 184              		.loc 1 42 9 is_stmt 1 view .LVU44
 185              		.loc 1 42 46 is_stmt 0 view .LVU45
 186 001a 5A00     		lsls	r2, r3, #1
 187              		.loc 1 42 43 view .LVU46
 188 001c 0F49     		ldr	r1, .L10
 189 001e 8C46     		mov	ip, r1
ARM GAS  C:\Users\jisu8\AppData\Local\Temp\ccDqzbcz.s 			page 5


 190 0020 6244     		add	r2, r2, ip
 191              		.loc 1 42 13 view .LVU47
 192 0022 1288     		ldrh	r2, [r2]
 193              		.loc 1 42 11 view .LVU48
 194 0024 002A     		cmp	r2, #0
 195 0026 F4D0     		beq	.L7
  43:Core/Src/eeprom.c ****         {
  44:Core/Src/eeprom.c ****             data[i] = *(uint16*)(EEPROM_PAGE31_START+(i*2));
 196              		.loc 1 44 13 is_stmt 1 view .LVU49
 197              		.loc 1 44 21 is_stmt 0 view .LVU50
 198 0028 5900     		lsls	r1, r3, #1
 199 002a 6846     		mov	r0, sp
 200 002c 0A52     		strh	r2, [r1, r0]
 201 002e F0E7     		b	.L7
 202              	.L9:
 203              	.LBE2:
  45:Core/Src/eeprom.c ****         }
  46:Core/Src/eeprom.c ****     }
  47:Core/Src/eeprom.c **** 
  48:Core/Src/eeprom.c ****     switch_submodeEEP = (uint8)data[0];
 204              		.loc 1 48 5 is_stmt 1 view .LVU51
 205              		.loc 1 48 25 is_stmt 0 view .LVU52
 206 0030 6B46     		mov	r3, sp
 207              	.LVL8:
 208              		.loc 1 48 25 view .LVU53
 209 0032 1A78     		ldrb	r2, [r3]
 210              		.loc 1 48 23 view .LVU54
 211 0034 0A4B     		ldr	r3, .L10+4
 212 0036 1A70     		strb	r2, [r3]
  49:Core/Src/eeprom.c ****     switch_trg_tempEEP = (sint16)data[1];
 213              		.loc 1 49 5 is_stmt 1 view .LVU55
 214              		.loc 1 49 26 is_stmt 0 view .LVU56
 215 0038 6B46     		mov	r3, sp
 216 003a 0222     		movs	r2, #2
 217 003c 9A5E     		ldrsh	r2, [r3, r2]
 218              		.loc 1 49 24 view .LVU57
 219 003e 094B     		ldr	r3, .L10+8
 220 0040 1A80     		strh	r2, [r3]
  50:Core/Src/eeprom.c ****     switch_trg_timeEEP = (sint16)data[2];
 221              		.loc 1 50 5 is_stmt 1 view .LVU58
 222              		.loc 1 50 26 is_stmt 0 view .LVU59
 223 0042 6B46     		mov	r3, sp
 224 0044 0422     		movs	r2, #4
 225 0046 9A5E     		ldrsh	r2, [r3, r2]
 226              		.loc 1 50 24 view .LVU60
 227 0048 074B     		ldr	r3, .L10+12
 228 004a 1A80     		strh	r2, [r3]
  51:Core/Src/eeprom.c ****     switch_idle_tempEEP = (sint16)data[3];
 229              		.loc 1 51 5 is_stmt 1 view .LVU61
 230              		.loc 1 51 27 is_stmt 0 view .LVU62
 231 004c 6B46     		mov	r3, sp
 232 004e 0622     		movs	r2, #6
 233 0050 9A5E     		ldrsh	r2, [r3, r2]
 234              		.loc 1 51 25 view .LVU63
 235 0052 064B     		ldr	r3, .L10+16
 236 0054 1A80     		strh	r2, [r3]
  52:Core/Src/eeprom.c **** }
ARM GAS  C:\Users\jisu8\AppData\Local\Temp\ccDqzbcz.s 			page 6


 237              		.loc 1 52 1 view .LVU64
 238 0056 03B0     		add	sp, sp, #12
 239              		@ sp needed
 240 0058 00BD     		pop	{pc}
 241              	.L11:
 242 005a C046     		.align	2
 243              	.L10:
 244 005c 007C0008 		.word	134249472
 245 0060 00000000 		.word	.LANCHOR2
 246 0064 00000000 		.word	.LANCHOR3
 247 0068 00000000 		.word	.LANCHOR4
 248 006c 00000000 		.word	.LANCHOR5
 249              		.cfi_endproc
 250              	.LFE41:
 252              		.section	.text.EEPROM_Erase,"ax",%progbits
 253              		.align	1
 254              		.global	EEPROM_Erase
 255              		.syntax unified
 256              		.code	16
 257              		.thumb_func
 259              	EEPROM_Erase:
 260              	.LFB42:
  53:Core/Src/eeprom.c **** 
  54:Core/Src/eeprom.c **** void EEPROM_Erase(void)
  55:Core/Src/eeprom.c **** {
 261              		.loc 1 55 1 is_stmt 1 view -0
 262              		.cfi_startproc
 263              		@ args = 0, pretend = 0, frame = 16
 264              		@ frame_needed = 0, uses_anonymous_args = 0
 265 0000 10B5     		push	{r4, lr}
 266              	.LCFI4:
 267              		.cfi_def_cfa_offset 8
 268              		.cfi_offset 4, -8
 269              		.cfi_offset 14, -4
 270 0002 84B0     		sub	sp, sp, #16
 271              	.LCFI5:
 272              		.cfi_def_cfa_offset 24
  56:Core/Src/eeprom.c ****     uint32_t SectorError = 0;
 273              		.loc 1 56 5 view .LVU66
 274              		.loc 1 56 14 is_stmt 0 view .LVU67
 275 0004 0024     		movs	r4, #0
 276 0006 0394     		str	r4, [sp, #12]
  57:Core/Src/eeprom.c ****     
  58:Core/Src/eeprom.c ****     /* Unlock to control */
  59:Core/Src/eeprom.c ****     HAL_FLASH_Unlock();
 277              		.loc 1 59 5 is_stmt 1 view .LVU68
 278 0008 FFF7FEFF 		bl	HAL_FLASH_Unlock
 279              	.LVL9:
  60:Core/Src/eeprom.c ****     
  61:Core/Src/eeprom.c ****     /* Calculate sector index */
  62:Core/Src/eeprom.c ****     uint32_t UserAddress = EEPROM_PAGE31_START;
 280              		.loc 1 62 5 view .LVU69
  63:Core/Src/eeprom.c ****     uint32_t NbOfSectors = 1;
 281              		.loc 1 63 5 view .LVU70
  64:Core/Src/eeprom.c ****     
  65:Core/Src/eeprom.c ****     /* Erase sectors */
  66:Core/Src/eeprom.c ****     FLASH_EraseInitTypeDef EraseInitStruct;
ARM GAS  C:\Users\jisu8\AppData\Local\Temp\ccDqzbcz.s 			page 7


 282              		.loc 1 66 5 view .LVU71
  67:Core/Src/eeprom.c ****     EraseInitStruct.TypeErase = FLASH_TYPEERASE_PAGES;
 283              		.loc 1 67 5 view .LVU72
 284              		.loc 1 67 31 is_stmt 0 view .LVU73
 285 000c 0094     		str	r4, [sp]
  68:Core/Src/eeprom.c ****     EraseInitStruct.PageAddress = UserAddress;
 286              		.loc 1 68 5 is_stmt 1 view .LVU74
 287              		.loc 1 68 33 is_stmt 0 view .LVU75
 288 000e 084B     		ldr	r3, .L16
 289 0010 0193     		str	r3, [sp, #4]
  69:Core/Src/eeprom.c ****     EraseInitStruct.NbPages = NbOfSectors;
 290              		.loc 1 69 5 is_stmt 1 view .LVU76
 291              		.loc 1 69 29 is_stmt 0 view .LVU77
 292 0012 0123     		movs	r3, #1
 293 0014 0293     		str	r3, [sp, #8]
  70:Core/Src/eeprom.c ****     
  71:Core/Src/eeprom.c ****     if(HAL_FLASHEx_Erase(&EraseInitStruct, &SectorError) != HAL_OK)
 294              		.loc 1 71 5 is_stmt 1 view .LVU78
 295              		.loc 1 71 8 is_stmt 0 view .LVU79
 296 0016 03A9     		add	r1, sp, #12
 297 0018 6846     		mov	r0, sp
 298 001a FFF7FEFF 		bl	HAL_FLASHEx_Erase
 299              	.LVL10:
 300              		.loc 1 71 7 view .LVU80
 301 001e 0028     		cmp	r0, #0
 302 0020 03D1     		bne	.L15
  72:Core/Src/eeprom.c ****     { 
  73:Core/Src/eeprom.c ****         uint32_t errorcode = HAL_FLASH_GetError();            
  74:Core/Src/eeprom.c ****         return HAL_ERROR;
  75:Core/Src/eeprom.c ****     }
  76:Core/Src/eeprom.c ****     
  77:Core/Src/eeprom.c ****     /* Lock flash control register */
  78:Core/Src/eeprom.c ****     HAL_FLASH_Lock();
 303              		.loc 1 78 5 is_stmt 1 view .LVU81
 304 0022 FFF7FEFF 		bl	HAL_FLASH_Lock
 305              	.LVL11:
  79:Core/Src/eeprom.c ****     
  80:Core/Src/eeprom.c ****     return HAL_OK;   
 306              		.loc 1 80 5 view .LVU82
 307              	.L12:
  81:Core/Src/eeprom.c **** }
 308              		.loc 1 81 1 is_stmt 0 view .LVU83
 309 0026 04B0     		add	sp, sp, #16
 310              		@ sp needed
 311 0028 10BD     		pop	{r4, pc}
 312              	.L15:
 313              	.LBB3:
  73:Core/Src/eeprom.c ****         return HAL_ERROR;
 314              		.loc 1 73 9 is_stmt 1 view .LVU84
  73:Core/Src/eeprom.c ****         return HAL_ERROR;
 315              		.loc 1 73 30 is_stmt 0 view .LVU85
 316 002a FFF7FEFF 		bl	HAL_FLASH_GetError
 317              	.LVL12:
  74:Core/Src/eeprom.c ****     }
 318              		.loc 1 74 9 is_stmt 1 view .LVU86
  74:Core/Src/eeprom.c ****     }
 319              		.loc 1 74 16 is_stmt 0 view .LVU87
ARM GAS  C:\Users\jisu8\AppData\Local\Temp\ccDqzbcz.s 			page 8


 320 002e FAE7     		b	.L12
 321              	.L17:
 322              		.align	2
 323              	.L16:
 324 0030 007C0008 		.word	134249472
 325              	.LBE3:
 326              		.cfi_endproc
 327              	.LFE42:
 329              		.global	switch_idle_tempEEP
 330              		.global	switch_trg_timeEEP
 331              		.global	switch_trg_tempEEP
 332              		.global	switch_submodeEEP
 333              		.section	.bss.EEPROM_Write_Counter,"aw",%nobits
 334              		.set	.LANCHOR0,. + 0
 337              	EEPROM_Write_Counter:
 338 0000 00       		.space	1
 339              		.section	.bss.switch_idle_tempEEP,"aw",%nobits
 340              		.align	1
 341              		.set	.LANCHOR5,. + 0
 344              	switch_idle_tempEEP:
 345 0000 0000     		.space	2
 346              		.section	.bss.switch_submodeEEP,"aw",%nobits
 347              		.set	.LANCHOR2,. + 0
 350              	switch_submodeEEP:
 351 0000 00       		.space	1
 352              		.section	.bss.switch_trg_tempEEP,"aw",%nobits
 353              		.align	1
 354              		.set	.LANCHOR3,. + 0
 357              	switch_trg_tempEEP:
 358 0000 0000     		.space	2
 359              		.section	.bss.switch_trg_timeEEP,"aw",%nobits
 360              		.align	1
 361              		.set	.LANCHOR4,. + 0
 364              	switch_trg_timeEEP:
 365 0000 0000     		.space	2
 366              		.section	.data.EEPROM_Write_Address,"aw"
 367              		.align	2
 368              		.set	.LANCHOR1,. + 0
 371              	EEPROM_Write_Address:
 372 0000 007C0008 		.word	134249472
 373              		.text
 374              	.Letext0:
 375              		.file 2 "d:\\3.tools\\arm_gcc_toolchain\\arm-none-eabi\\include\\machine\\_default_types.h"
 376              		.file 3 "d:\\3.tools\\arm_gcc_toolchain\\arm-none-eabi\\include\\sys\\_stdint.h"
 377              		.file 4 "Drivers/STM32F0xx_HAL_Driver/Inc/stm32f0xx_hal_flash_ex.h"
 378              		.file 5 "Core/Inc/vardef.h"
 379              		.file 6 "Core/Inc/eeprom.h"
 380              		.file 7 "Core/Inc/switch.h"
 381              		.file 8 "Drivers/STM32F0xx_HAL_Driver/Inc/stm32f0xx_hal_flash.h"
 382              		.file 9 "Drivers/STM32F0xx_HAL_Driver/Inc/stm32f0xx_hal_def.h"
 383              		.file 10 "<built-in>"
ARM GAS  C:\Users\jisu8\AppData\Local\Temp\ccDqzbcz.s 			page 9

