ARM GAS  C:\Users\jisu8\AppData\Local\Temp\ccKhqaNj.s 			page 1


   1              		.cpu cortex-m0
   2              		.arch armv6s-m
   3              		.fpu softvfp
   4              		.eabi_attribute 20, 1
   5              		.eabi_attribute 21, 1
   6              		.eabi_attribute 23, 3
   7              		.eabi_attribute 24, 1
   8              		.eabi_attribute 25, 1
   9              		.eabi_attribute 26, 1
  10              		.eabi_attribute 30, 1
  11              		.eabi_attribute 34, 0
  12              		.eabi_attribute 18, 4
  13              		.file	"led.c"
  14              		.text
  15              	.Ltext0:
  16              		.cfi_sections	.debug_frame
  17              		.section	.text.LED_Control,"ax",%progbits
  18              		.align	1
  19              		.global	LED_Control
  20              		.syntax unified
  21              		.code	16
  22              		.thumb_func
  24              	LED_Control:
  25              	.LFB40:
  26              		.file 1 "Core/Src/led.c"
   1:Core/Src/led.c **** #include "led.h"
   2:Core/Src/led.c **** #include "switch.h"
   3:Core/Src/led.c **** #include "temp.h"
   4:Core/Src/led.c **** #include "pwm.h"
   5:Core/Src/led.c **** #include "co2.h"
   6:Core/Src/led.c **** 
   7:Core/Src/led.c **** uint16 LED_TimeCounter;
   8:Core/Src/led.c **** uint16 LED_TimeCounter_Co2;
   9:Core/Src/led.c **** void LED_Control(void)
  10:Core/Src/led.c **** {
  27              		.loc 1 10 1 view -0
  28              		.cfi_startproc
  29              		@ args = 0, pretend = 0, frame = 0
  30              		@ frame_needed = 0, uses_anonymous_args = 0
  31 0000 10B5     		push	{r4, lr}
  32              	.LCFI0:
  33              		.cfi_def_cfa_offset 8
  34              		.cfi_offset 4, -8
  35              		.cfi_offset 14, -4
  11:Core/Src/led.c ****     LED_TimeCounter++;
  36              		.loc 1 11 5 view .LVU1
  37              		.loc 1 11 20 is_stmt 0 view .LVU2
  38 0002 7D4B     		ldr	r3, .L31
  39 0004 1A88     		ldrh	r2, [r3]
  40 0006 0132     		adds	r2, r2, #1
  41 0008 92B2     		uxth	r2, r2
  42 000a 1A80     		strh	r2, [r3]
  12:Core/Src/led.c ****     LED_TimeCounter_Co2++;
  43              		.loc 1 12 5 is_stmt 1 view .LVU3
  44              		.loc 1 12 24 is_stmt 0 view .LVU4
  45 000c 7B49     		ldr	r1, .L31+4
  46 000e 0B88     		ldrh	r3, [r1]
ARM GAS  C:\Users\jisu8\AppData\Local\Temp\ccKhqaNj.s 			page 2


  47 0010 0133     		adds	r3, r3, #1
  48 0012 9BB2     		uxth	r3, r3
  49 0014 0B80     		strh	r3, [r1]
  13:Core/Src/led.c ****     if(LED_TimeCounter>20)
  50              		.loc 1 13 5 is_stmt 1 view .LVU5
  51              		.loc 1 13 7 is_stmt 0 view .LVU6
  52 0016 142A     		cmp	r2, #20
  53 0018 02D9     		bls	.L2
  14:Core/Src/led.c ****     {
  15:Core/Src/led.c ****         LED_TimeCounter = 0;
  54              		.loc 1 15 9 is_stmt 1 view .LVU7
  55              		.loc 1 15 25 is_stmt 0 view .LVU8
  56 001a 774A     		ldr	r2, .L31
  57 001c 0021     		movs	r1, #0
  58 001e 1180     		strh	r1, [r2]
  59              	.L2:
  16:Core/Src/led.c ****     }
  17:Core/Src/led.c ****     if(LED_TimeCounter_Co2>10)
  60              		.loc 1 17 5 is_stmt 1 view .LVU9
  61              		.loc 1 17 7 is_stmt 0 view .LVU10
  62 0020 0A2B     		cmp	r3, #10
  63 0022 02D9     		bls	.L3
  18:Core/Src/led.c ****     {
  19:Core/Src/led.c ****         LED_TimeCounter_Co2 = 0;
  64              		.loc 1 19 9 is_stmt 1 view .LVU11
  65              		.loc 1 19 29 is_stmt 0 view .LVU12
  66 0024 754B     		ldr	r3, .L31+4
  67 0026 0022     		movs	r2, #0
  68 0028 1A80     		strh	r2, [r3]
  69              	.L3:
  20:Core/Src/led.c ****     }
  21:Core/Src/led.c **** 
  22:Core/Src/led.c ****     if((Target_Run_Time == 0)&&(Pwm_Led_Mode == PWM_LED_MODE_COOLING))
  70              		.loc 1 22 5 is_stmt 1 view .LVU13
  71              		.loc 1 22 25 is_stmt 0 view .LVU14
  72 002a 754B     		ldr	r3, .L31+8
  73 002c 1B68     		ldr	r3, [r3]
  74              		.loc 1 22 7 view .LVU15
  75 002e 002B     		cmp	r3, #0
  76 0030 03D1     		bne	.L4
  77              		.loc 1 22 46 discriminator 1 view .LVU16
  78 0032 744B     		ldr	r3, .L31+12
  79 0034 1B78     		ldrb	r3, [r3]
  80              		.loc 1 22 30 discriminator 1 view .LVU17
  81 0036 012B     		cmp	r3, #1
  82 0038 5CD0     		beq	.L19
  83              	.L4:
  23:Core/Src/led.c ****     {
  24:Core/Src/led.c ****         HAL_GPIO_WritePin(LED_1_2_GROUP,LED_1_2_PIN,LED_ON);
  25:Core/Src/led.c ****     }
  26:Core/Src/led.c ****     if((Target_Run_Time == 0)&&(Pwm_Led_Mode != PWM_LED_MODE_COOLING))
  84              		.loc 1 26 5 is_stmt 1 view .LVU18
  85              		.loc 1 26 25 is_stmt 0 view .LVU19
  86 003a 714B     		ldr	r3, .L31+8
  87 003c 1B68     		ldr	r3, [r3]
  88              		.loc 1 26 7 view .LVU20
  89 003e 002B     		cmp	r3, #0
ARM GAS  C:\Users\jisu8\AppData\Local\Temp\ccKhqaNj.s 			page 3


  90 0040 03D1     		bne	.L5
  91              		.loc 1 26 46 discriminator 1 view .LVU21
  92 0042 704B     		ldr	r3, .L31+12
  93 0044 1B78     		ldrb	r3, [r3]
  94              		.loc 1 26 30 discriminator 1 view .LVU22
  95 0046 012B     		cmp	r3, #1
  96 0048 5BD1     		bne	.L20
  97              	.L5:
  27:Core/Src/led.c ****     {
  28:Core/Src/led.c ****         HAL_GPIO_WritePin(LED_1_2_GROUP,LED_1_2_PIN,LED_OFF);
  29:Core/Src/led.c ****     }
  30:Core/Src/led.c ****     if((Target_Run_Time == 0)&&(Pwm_Led_Mode == PWM_LED_MODE_HEATING))
  98              		.loc 1 30 5 is_stmt 1 view .LVU23
  99              		.loc 1 30 25 is_stmt 0 view .LVU24
 100 004a 6D4B     		ldr	r3, .L31+8
 101 004c 1B68     		ldr	r3, [r3]
 102              		.loc 1 30 7 view .LVU25
 103 004e 002B     		cmp	r3, #0
 104 0050 03D1     		bne	.L6
 105              		.loc 1 30 46 discriminator 1 view .LVU26
 106 0052 6C4B     		ldr	r3, .L31+12
 107 0054 1B78     		ldrb	r3, [r3]
 108              		.loc 1 30 30 discriminator 1 view .LVU27
 109 0056 022B     		cmp	r3, #2
 110 0058 5AD0     		beq	.L21
 111              	.L6:
  31:Core/Src/led.c ****     {
  32:Core/Src/led.c ****         HAL_GPIO_WritePin(LED_1_1_GROUP,LED_1_1_PIN,LED_ON);
  33:Core/Src/led.c ****     }
  34:Core/Src/led.c ****     if((Target_Run_Time == 0)&&(Pwm_Led_Mode != PWM_LED_MODE_HEATING))
 112              		.loc 1 34 5 is_stmt 1 view .LVU28
 113              		.loc 1 34 25 is_stmt 0 view .LVU29
 114 005a 694B     		ldr	r3, .L31+8
 115 005c 1B68     		ldr	r3, [r3]
 116              		.loc 1 34 7 view .LVU30
 117 005e 002B     		cmp	r3, #0
 118 0060 03D1     		bne	.L7
 119              		.loc 1 34 46 discriminator 1 view .LVU31
 120 0062 684B     		ldr	r3, .L31+12
 121 0064 1B78     		ldrb	r3, [r3]
 122              		.loc 1 34 30 discriminator 1 view .LVU32
 123 0066 022B     		cmp	r3, #2
 124 0068 59D1     		bne	.L22
 125              	.L7:
  35:Core/Src/led.c ****     {
  36:Core/Src/led.c ****         HAL_GPIO_WritePin(LED_1_1_GROUP,LED_1_1_PIN,LED_OFF);
  37:Core/Src/led.c ****     }
  38:Core/Src/led.c **** 
  39:Core/Src/led.c ****     if(CO2_Data16 >= LED_CO2_BLANKING_THRESHOLD)
 126              		.loc 1 39 5 is_stmt 1 view .LVU33
 127              		.loc 1 39 19 is_stmt 0 view .LVU34
 128 006a 674B     		ldr	r3, .L31+16
 129 006c 1A88     		ldrh	r2, [r3]
 130              		.loc 1 39 7 view .LVU35
 131 006e 674B     		ldr	r3, .L31+20
 132 0070 9A42     		cmp	r2, r3
 133 0072 00D8     		bhi	.LCB84
ARM GAS  C:\Users\jisu8\AppData\Local\Temp\ccKhqaNj.s 			page 4


 134 0074 76E0     		b	.L8	@long jump
 135              	.LCB84:
  40:Core/Src/led.c ****     {
  41:Core/Src/led.c ****         if(LED_TimeCounter_Co2 < LED_BLANKING_TIME_0P5S)
 136              		.loc 1 41 9 is_stmt 1 view .LVU36
 137              		.loc 1 41 32 is_stmt 0 view .LVU37
 138 0076 614B     		ldr	r3, .L31+4
 139 0078 1B88     		ldrh	r3, [r3]
 140              		.loc 1 41 11 view .LVU38
 141 007a 042B     		cmp	r3, #4
 142 007c 56D9     		bls	.L23
 143              	.L9:
  42:Core/Src/led.c ****         {
  43:Core/Src/led.c ****             HAL_GPIO_WritePin(LED_3_1_GROUP,LED_3_1_PIN,LED_ON);                
  44:Core/Src/led.c ****             HAL_GPIO_WritePin(LED_3_2_GROUP,LED_3_2_PIN,LED_OFF);        
  45:Core/Src/led.c ****         }
  46:Core/Src/led.c ****         if(LED_TimeCounter_Co2 >= LED_BLANKING_TIME_0P5S)
 144              		.loc 1 46 9 is_stmt 1 view .LVU39
 145              		.loc 1 46 32 is_stmt 0 view .LVU40
 146 007e 5F4B     		ldr	r3, .L31+4
 147 0080 1B88     		ldrh	r3, [r3]
 148              		.loc 1 46 11 view .LVU41
 149 0082 042B     		cmp	r3, #4
 150 0084 60D8     		bhi	.L24
 151              	.L10:
  47:Core/Src/led.c ****         {
  48:Core/Src/led.c ****             HAL_GPIO_WritePin(LED_3_1_GROUP,LED_3_1_PIN,LED_OFF);                
  49:Core/Src/led.c ****             HAL_GPIO_WritePin(LED_3_2_GROUP,LED_3_2_PIN,LED_ON);     
  50:Core/Src/led.c ****         }
  51:Core/Src/led.c ****     }
  52:Core/Src/led.c ****     else
  53:Core/Src/led.c ****     {
  54:Core/Src/led.c ****         HAL_GPIO_WritePin(LED_3_1_GROUP,LED_3_1_PIN,LED_OFF);                 
  55:Core/Src/led.c ****         HAL_GPIO_WritePin(LED_3_2_GROUP,LED_3_2_PIN,LED_OFF);      
  56:Core/Src/led.c ****     }
  57:Core/Src/led.c **** 
  58:Core/Src/led.c ****     if(LED_TimeCounter < LED_BLANKING_TIME_1S)
 152              		.loc 1 58 5 is_stmt 1 view .LVU42
 153              		.loc 1 58 24 is_stmt 0 view .LVU43
 154 0086 5C4B     		ldr	r3, .L31
 155 0088 1B88     		ldrh	r3, [r3]
 156              		.loc 1 58 7 view .LVU44
 157 008a 092B     		cmp	r3, #9
 158 008c 09D8     		bhi	.L11
  59:Core/Src/led.c ****     {
  60:Core/Src/led.c ****         if((Pwm_Led_Mode == PWM_LED_MODE_COOLING)&&(Target_Run_Time != 0))
 159              		.loc 1 60 9 is_stmt 1 view .LVU45
 160              		.loc 1 60 26 is_stmt 0 view .LVU46
 161 008e 5D4B     		ldr	r3, .L31+12
 162 0090 1B78     		ldrb	r3, [r3]
 163              		.loc 1 60 11 view .LVU47
 164 0092 012B     		cmp	r3, #1
 165 0094 00D1     		bne	.LCB106
 166 0096 73E0     		b	.L25	@long jump
 167              	.LCB106:
 168              	.L12:
  61:Core/Src/led.c ****         {
ARM GAS  C:\Users\jisu8\AppData\Local\Temp\ccKhqaNj.s 			page 5


  62:Core/Src/led.c ****             HAL_GPIO_WritePin(LED_1_2_GROUP,LED_1_2_PIN,LED_ON);
  63:Core/Src/led.c ****         }        
  64:Core/Src/led.c ****         if((Pwm_Led_Mode == PWM_LED_MODE_HEATING)&&(Target_Run_Time != 0))
 169              		.loc 1 64 9 is_stmt 1 view .LVU48
 170              		.loc 1 64 26 is_stmt 0 view .LVU49
 171 0098 5A4B     		ldr	r3, .L31+12
 172 009a 1B78     		ldrb	r3, [r3]
 173              		.loc 1 64 11 view .LVU50
 174 009c 022B     		cmp	r3, #2
 175 009e 00D1     		bne	.LCB112
 176 00a0 7AE0     		b	.L26	@long jump
 177              	.LCB112:
 178              	.L11:
  65:Core/Src/led.c ****         {
  66:Core/Src/led.c ****             HAL_GPIO_WritePin(LED_1_1_GROUP,LED_1_1_PIN,LED_ON);
  67:Core/Src/led.c ****         }
  68:Core/Src/led.c ****     }
  69:Core/Src/led.c ****     if(LED_TimeCounter >= LED_BLANKING_TIME_1S)
 179              		.loc 1 69 5 is_stmt 1 view .LVU51
 180              		.loc 1 69 24 is_stmt 0 view .LVU52
 181 00a2 554B     		ldr	r3, .L31
 182 00a4 1B88     		ldrh	r3, [r3]
 183              		.loc 1 69 7 view .LVU53
 184 00a6 092B     		cmp	r3, #9
 185 00a8 09D9     		bls	.L13
  70:Core/Src/led.c ****     {
  71:Core/Src/led.c ****         if((Pwm_Led_Mode == PWM_LED_MODE_COOLING)&&(Target_Run_Time != 0))
 186              		.loc 1 71 9 is_stmt 1 view .LVU54
 187              		.loc 1 71 26 is_stmt 0 view .LVU55
 188 00aa 564B     		ldr	r3, .L31+12
 189 00ac 1B78     		ldrb	r3, [r3]
 190              		.loc 1 71 11 view .LVU56
 191 00ae 012B     		cmp	r3, #1
 192 00b0 00D1     		bne	.LCB123
 193 00b2 7DE0     		b	.L27	@long jump
 194              	.LCB123:
 195              	.L14:
  72:Core/Src/led.c ****         {
  73:Core/Src/led.c ****             HAL_GPIO_WritePin(LED_1_2_GROUP,LED_1_2_PIN,LED_OFF);
  74:Core/Src/led.c ****         }
  75:Core/Src/led.c ****         if((Pwm_Led_Mode == PWM_LED_MODE_HEATING)&&(Target_Run_Time != 0))
 196              		.loc 1 75 9 is_stmt 1 view .LVU57
 197              		.loc 1 75 26 is_stmt 0 view .LVU58
 198 00b4 534B     		ldr	r3, .L31+12
 199 00b6 1B78     		ldrb	r3, [r3]
 200              		.loc 1 75 11 view .LVU59
 201 00b8 022B     		cmp	r3, #2
 202 00ba 00D1     		bne	.LCB129
 203 00bc 84E0     		b	.L28	@long jump
 204              	.LCB129:
 205              	.L13:
  76:Core/Src/led.c ****         {
  77:Core/Src/led.c ****             HAL_GPIO_WritePin(LED_1_1_GROUP,LED_1_1_PIN,LED_OFF);
  78:Core/Src/led.c ****         }
  79:Core/Src/led.c ****     }
  80:Core/Src/led.c **** 
  81:Core/Src/led.c ****     if((switch_submode == SWITCH_SUB_MODE_18)||(switch_submode == SWITCH_SUB_MODE_19))
ARM GAS  C:\Users\jisu8\AppData\Local\Temp\ccKhqaNj.s 			page 6


 206              		.loc 1 81 5 is_stmt 1 view .LVU60
 207              		.loc 1 81 46 is_stmt 0 view .LVU61
 208 00be 544B     		ldr	r3, .L31+24
 209 00c0 1B78     		ldrb	r3, [r3]
 210 00c2 123B     		subs	r3, r3, #18
 211 00c4 DBB2     		uxtb	r3, r3
 212              		.loc 1 81 7 view .LVU62
 213 00c6 012B     		cmp	r3, #1
 214 00c8 00D8     		bhi	.LCB137
 215 00ca 89E0     		b	.L29	@long jump
 216              	.LCB137:
  82:Core/Src/led.c ****     {
  83:Core/Src/led.c ****         HAL_GPIO_WritePin(LED_2_2_GROUP,LED_2_2_PIN,LED_ON);           
  84:Core/Src/led.c ****     }
  85:Core/Src/led.c ****     else
  86:Core/Src/led.c ****     {
  87:Core/Src/led.c ****         HAL_GPIO_WritePin(LED_2_2_GROUP,LED_2_2_PIN,LED_OFF);                
 217              		.loc 1 87 9 is_stmt 1 view .LVU63
 218 00cc 0022     		movs	r2, #0
 219 00ce 2021     		movs	r1, #32
 220 00d0 5048     		ldr	r0, .L31+28
 221 00d2 FFF7FEFF 		bl	HAL_GPIO_WritePin
 222              	.LVL0:
 223              	.L16:
  88:Core/Src/led.c ****     }
  89:Core/Src/led.c **** 
  90:Core/Src/led.c ****     /* Emergency output */
  91:Core/Src/led.c ****     if((switch_overtemp == 0)&&(Pwm_Led_Mode == PWM_LED_MODE_HEATING))
 224              		.loc 1 91 5 view .LVU64
 225              		.loc 1 91 25 is_stmt 0 view .LVU65
 226 00d6 504B     		ldr	r3, .L31+32
 227 00d8 1B78     		ldrb	r3, [r3]
 228              		.loc 1 91 7 view .LVU66
 229 00da 002B     		cmp	r3, #0
 230 00dc 04D1     		bne	.L17
 231              		.loc 1 91 46 discriminator 1 view .LVU67
 232 00de 494B     		ldr	r3, .L31+12
 233 00e0 1B78     		ldrb	r3, [r3]
 234              		.loc 1 91 30 discriminator 1 view .LVU68
 235 00e2 022B     		cmp	r3, #2
 236 00e4 00D1     		bne	.LCB153
 237 00e6 81E0     		b	.L30	@long jump
 238              	.LCB153:
 239              	.L17:
  92:Core/Src/led.c ****     { 
  93:Core/Src/led.c ****         HAL_GPIO_WritePin(LED_2_1_GROUP,LED_2_1_PIN,LED_ON);                
  94:Core/Src/led.c ****     }
  95:Core/Src/led.c ****     else
  96:Core/Src/led.c ****     {
  97:Core/Src/led.c ****         HAL_GPIO_WritePin(LED_2_1_GROUP,LED_2_1_PIN,LED_OFF);          
 240              		.loc 1 97 9 is_stmt 1 view .LVU69
 241 00e8 0022     		movs	r2, #0
 242 00ea 1021     		movs	r1, #16
 243 00ec 4948     		ldr	r0, .L31+28
 244 00ee FFF7FEFF 		bl	HAL_GPIO_WritePin
 245              	.LVL1:
  98:Core/Src/led.c ****     }
ARM GAS  C:\Users\jisu8\AppData\Local\Temp\ccKhqaNj.s 			page 7


  99:Core/Src/led.c ****               
 100:Core/Src/led.c ****     return;
 246              		.loc 1 100 5 view .LVU70
 247              	.L1:
 101:Core/Src/led.c **** }...
 248              		.loc 1 101 1 is_stmt 0 view .LVU71
 249              		@ sp needed
 250 00f2 10BD     		pop	{r4, pc}
 251              	.L19:
  24:Core/Src/led.c ****         HAL_GPIO_WritePin(LED_1_2_GROUP,LED_1_2_PIN,LED_ON);
 252              		.loc 1 24 9 is_stmt 1 view .LVU72
 253 00f4 8021     		movs	r1, #128
 254 00f6 0122     		movs	r2, #1
 255 00f8 4900     		lsls	r1, r1, #1
 256 00fa 4648     		ldr	r0, .L31+28
 257 00fc FFF7FEFF 		bl	HAL_GPIO_WritePin
 258              	.LVL2:
 259 0100 9BE7     		b	.L4
 260              	.L20:
  28:Core/Src/led.c ****         HAL_GPIO_WritePin(LED_1_2_GROUP,LED_1_2_PIN,LED_OFF);
 261              		.loc 1 28 9 view .LVU73
 262 0102 8021     		movs	r1, #128
 263 0104 0022     		movs	r2, #0
 264 0106 4900     		lsls	r1, r1, #1
 265 0108 4248     		ldr	r0, .L31+28
 266 010a FFF7FEFF 		bl	HAL_GPIO_WritePin
 267              	.LVL3:
 268 010e 9CE7     		b	.L5
 269              	.L21:
  32:Core/Src/led.c ****         HAL_GPIO_WritePin(LED_1_1_GROUP,LED_1_1_PIN,LED_ON);
 270              		.loc 1 32 9 view .LVU74
 271 0110 9020     		movs	r0, #144
 272 0112 0122     		movs	r2, #1
 273 0114 0221     		movs	r1, #2
 274 0116 C005     		lsls	r0, r0, #23
 275 0118 FFF7FEFF 		bl	HAL_GPIO_WritePin
 276              	.LVL4:
 277 011c 9DE7     		b	.L6
 278              	.L22:
  36:Core/Src/led.c ****         HAL_GPIO_WritePin(LED_1_1_GROUP,LED_1_1_PIN,LED_OFF);
 279              		.loc 1 36 9 view .LVU75
 280 011e 9020     		movs	r0, #144
 281 0120 0022     		movs	r2, #0
 282 0122 0221     		movs	r1, #2
 283 0124 C005     		lsls	r0, r0, #23
 284 0126 FFF7FEFF 		bl	HAL_GPIO_WritePin
 285              	.LVL5:
 286 012a 9EE7     		b	.L7
 287              	.L23:
  43:Core/Src/led.c ****             HAL_GPIO_WritePin(LED_3_1_GROUP,LED_3_1_PIN,LED_ON);                
 288              		.loc 1 43 13 view .LVU76
 289 012c 8021     		movs	r1, #128
 290 012e 394C     		ldr	r4, .L31+28
 291 0130 0122     		movs	r2, #1
 292 0132 4901     		lsls	r1, r1, #5
 293 0134 2000     		movs	r0, r4
 294 0136 FFF7FEFF 		bl	HAL_GPIO_WritePin
ARM GAS  C:\Users\jisu8\AppData\Local\Temp\ccKhqaNj.s 			page 8


 295              	.LVL6:
  44:Core/Src/led.c ****             HAL_GPIO_WritePin(LED_3_2_GROUP,LED_3_2_PIN,LED_OFF);        
 296              		.loc 1 44 13 view .LVU77
 297 013a 8021     		movs	r1, #128
 298 013c 0022     		movs	r2, #0
 299 013e 8900     		lsls	r1, r1, #2
 300 0140 2000     		movs	r0, r4
 301 0142 FFF7FEFF 		bl	HAL_GPIO_WritePin
 302              	.LVL7:
 303 0146 9AE7     		b	.L9
 304              	.L24:
  48:Core/Src/led.c ****             HAL_GPIO_WritePin(LED_3_1_GROUP,LED_3_1_PIN,LED_OFF);                
 305              		.loc 1 48 13 view .LVU78
 306 0148 8021     		movs	r1, #128
 307 014a 324C     		ldr	r4, .L31+28
 308 014c 0022     		movs	r2, #0
 309 014e 4901     		lsls	r1, r1, #5
 310 0150 2000     		movs	r0, r4
 311 0152 FFF7FEFF 		bl	HAL_GPIO_WritePin
 312              	.LVL8:
  49:Core/Src/led.c ****             HAL_GPIO_WritePin(LED_3_2_GROUP,LED_3_2_PIN,LED_ON);     
 313              		.loc 1 49 13 view .LVU79
 314 0156 8021     		movs	r1, #128
 315 0158 0122     		movs	r2, #1
 316 015a 8900     		lsls	r1, r1, #2
 317 015c 2000     		movs	r0, r4
 318 015e FFF7FEFF 		bl	HAL_GPIO_WritePin
 319              	.LVL9:
 320 0162 90E7     		b	.L10
 321              	.L8:
  54:Core/Src/led.c ****         HAL_GPIO_WritePin(LED_3_1_GROUP,LED_3_1_PIN,LED_OFF);                 
 322              		.loc 1 54 9 view .LVU80
 323 0164 8021     		movs	r1, #128
 324 0166 2B4C     		ldr	r4, .L31+28
 325 0168 0022     		movs	r2, #0
 326 016a 4901     		lsls	r1, r1, #5
 327 016c 2000     		movs	r0, r4
 328 016e FFF7FEFF 		bl	HAL_GPIO_WritePin
 329              	.LVL10:
  55:Core/Src/led.c ****         HAL_GPIO_WritePin(LED_3_2_GROUP,LED_3_2_PIN,LED_OFF);      
 330              		.loc 1 55 9 view .LVU81
 331 0172 8021     		movs	r1, #128
 332 0174 0022     		movs	r2, #0
 333 0176 8900     		lsls	r1, r1, #2
 334 0178 2000     		movs	r0, r4
 335 017a FFF7FEFF 		bl	HAL_GPIO_WritePin
 336              	.LVL11:
 337 017e 82E7     		b	.L10
 338              	.L25:
  60:Core/Src/led.c ****         if((Pwm_Led_Mode == PWM_LED_MODE_COOLING)&&(Target_Run_Time != 0))
 339              		.loc 1 60 69 is_stmt 0 discriminator 1 view .LVU82
 340 0180 1F4B     		ldr	r3, .L31+8
 341 0182 1B68     		ldr	r3, [r3]
  60:Core/Src/led.c ****         if((Pwm_Led_Mode == PWM_LED_MODE_COOLING)&&(Target_Run_Time != 0))
 342              		.loc 1 60 50 discriminator 1 view .LVU83
 343 0184 002B     		cmp	r3, #0
 344 0186 00D1     		bne	.LCB264
ARM GAS  C:\Users\jisu8\AppData\Local\Temp\ccKhqaNj.s 			page 9


 345 0188 86E7     		b	.L12	@long jump
 346              	.LCB264:
  62:Core/Src/led.c ****             HAL_GPIO_WritePin(LED_1_2_GROUP,LED_1_2_PIN,LED_ON);
 347              		.loc 1 62 13 is_stmt 1 view .LVU84
 348 018a 8021     		movs	r1, #128
 349 018c 0122     		movs	r2, #1
 350 018e 4900     		lsls	r1, r1, #1
 351 0190 2048     		ldr	r0, .L31+28
 352 0192 FFF7FEFF 		bl	HAL_GPIO_WritePin
 353              	.LVL12:
 354 0196 7FE7     		b	.L12
 355              	.L26:
  64:Core/Src/led.c ****         if((Pwm_Led_Mode == PWM_LED_MODE_HEATING)&&(Target_Run_Time != 0))
 356              		.loc 1 64 69 is_stmt 0 discriminator 1 view .LVU85
 357 0198 194B     		ldr	r3, .L31+8
 358 019a 1B68     		ldr	r3, [r3]
  64:Core/Src/led.c ****         if((Pwm_Led_Mode == PWM_LED_MODE_HEATING)&&(Target_Run_Time != 0))
 359              		.loc 1 64 50 discriminator 1 view .LVU86
 360 019c 002B     		cmp	r3, #0
 361 019e 00D1     		bne	.LCB278
 362 01a0 7FE7     		b	.L11	@long jump
 363              	.LCB278:
  66:Core/Src/led.c ****             HAL_GPIO_WritePin(LED_1_1_GROUP,LED_1_1_PIN,LED_ON);
 364              		.loc 1 66 13 is_stmt 1 view .LVU87
 365 01a2 9020     		movs	r0, #144
 366 01a4 0122     		movs	r2, #1
 367 01a6 0221     		movs	r1, #2
 368 01a8 C005     		lsls	r0, r0, #23
 369 01aa FFF7FEFF 		bl	HAL_GPIO_WritePin
 370              	.LVL13:
 371 01ae 78E7     		b	.L11
 372              	.L27:
  71:Core/Src/led.c ****         if((Pwm_Led_Mode == PWM_LED_MODE_COOLING)&&(Target_Run_Time != 0))
 373              		.loc 1 71 69 is_stmt 0 discriminator 1 view .LVU88
 374 01b0 134B     		ldr	r3, .L31+8
 375 01b2 1B68     		ldr	r3, [r3]
  71:Core/Src/led.c ****         if((Pwm_Led_Mode == PWM_LED_MODE_COOLING)&&(Target_Run_Time != 0))
 376              		.loc 1 71 50 discriminator 1 view .LVU89
 377 01b4 002B     		cmp	r3, #0
 378 01b6 00D1     		bne	.LCB292
 379 01b8 7CE7     		b	.L14	@long jump
 380              	.LCB292:
  73:Core/Src/led.c ****             HAL_GPIO_WritePin(LED_1_2_GROUP,LED_1_2_PIN,LED_OFF);
 381              		.loc 1 73 13 is_stmt 1 view .LVU90
 382 01ba 8021     		movs	r1, #128
 383 01bc 0022     		movs	r2, #0
 384 01be 4900     		lsls	r1, r1, #1
 385 01c0 1448     		ldr	r0, .L31+28
 386 01c2 FFF7FEFF 		bl	HAL_GPIO_WritePin
 387              	.LVL14:
 388 01c6 75E7     		b	.L14
 389              	.L28:
  75:Core/Src/led.c ****         if((Pwm_Led_Mode == PWM_LED_MODE_HEATING)&&(Target_Run_Time != 0))
 390              		.loc 1 75 69 is_stmt 0 discriminator 1 view .LVU91
 391 01c8 0D4B     		ldr	r3, .L31+8
 392 01ca 1B68     		ldr	r3, [r3]
  75:Core/Src/led.c ****         if((Pwm_Led_Mode == PWM_LED_MODE_HEATING)&&(Target_Run_Time != 0))
ARM GAS  C:\Users\jisu8\AppData\Local\Temp\ccKhqaNj.s 			page 10


 393              		.loc 1 75 50 discriminator 1 view .LVU92
 394 01cc 002B     		cmp	r3, #0
 395 01ce 00D1     		bne	.LCB306
 396 01d0 75E7     		b	.L13	@long jump
 397              	.LCB306:
  77:Core/Src/led.c ****             HAL_GPIO_WritePin(LED_1_1_GROUP,LED_1_1_PIN,LED_OFF);
 398              		.loc 1 77 13 is_stmt 1 view .LVU93
 399 01d2 9020     		movs	r0, #144
 400 01d4 0022     		movs	r2, #0
 401 01d6 0221     		movs	r1, #2
 402 01d8 C005     		lsls	r0, r0, #23
 403 01da FFF7FEFF 		bl	HAL_GPIO_WritePin
 404              	.LVL15:
 405 01de 6EE7     		b	.L13
 406              	.L29:
  83:Core/Src/led.c ****         HAL_GPIO_WritePin(LED_2_2_GROUP,LED_2_2_PIN,LED_ON);           
 407              		.loc 1 83 9 view .LVU94
 408 01e0 0122     		movs	r2, #1
 409 01e2 2021     		movs	r1, #32
 410 01e4 0B48     		ldr	r0, .L31+28
 411 01e6 FFF7FEFF 		bl	HAL_GPIO_WritePin
 412              	.LVL16:
 413 01ea 74E7     		b	.L16
 414              	.L30:
  93:Core/Src/led.c ****         HAL_GPIO_WritePin(LED_2_1_GROUP,LED_2_1_PIN,LED_ON);                
 415              		.loc 1 93 9 view .LVU95
 416 01ec 0122     		movs	r2, #1
 417 01ee 1021     		movs	r1, #16
 418 01f0 0848     		ldr	r0, .L31+28
 419 01f2 FFF7FEFF 		bl	HAL_GPIO_WritePin
 420              	.LVL17:
 421 01f6 7CE7     		b	.L1
 422              	.L32:
 423              		.align	2
 424              	.L31:
 425 01f8 00000000 		.word	.LANCHOR0
 426 01fc 00000000 		.word	.LANCHOR1
 427 0200 00000000 		.word	Target_Run_Time
 428 0204 00000000 		.word	Pwm_Led_Mode
 429 0208 00000000 		.word	CO2_Data16
 430 020c C3090000 		.word	2499
 431 0210 00000000 		.word	switch_submode
 432 0214 00040048 		.word	1207960576
 433 0218 00000000 		.word	switch_overtemp
 434              		.cfi_endproc
 435              	.LFE40:
 437              		.global	LED_TimeCounter_Co2
 438              		.global	LED_TimeCounter
 439              		.section	.bss.LED_TimeCounter,"aw",%nobits
 440              		.align	1
 441              		.set	.LANCHOR0,. + 0
 444              	LED_TimeCounter:
 445 0000 0000     		.space	2
 446              		.section	.bss.LED_TimeCounter_Co2,"aw",%nobits
 447              		.align	1
 448              		.set	.LANCHOR1,. + 0
 451              	LED_TimeCounter_Co2:
ARM GAS  C:\Users\jisu8\AppData\Local\Temp\ccKhqaNj.s 			page 11


 452 0000 0000     		.space	2
 453              		.text
 454              	.Letext0:
 455              		.file 2 "d:\\3.tools\\arm_gcc_toolchain\\arm-none-eabi\\include\\machine\\_default_types.h"
 456              		.file 3 "d:\\3.tools\\arm_gcc_toolchain\\arm-none-eabi\\include\\sys\\_stdint.h"
 457              		.file 4 "Drivers/CMSIS/Device/ST/STM32F0xx/Include/stm32f030x6.h"
 458              		.file 5 "Core/Inc/vardef.h"
 459              		.file 6 "Core/Inc/switch.h"
 460              		.file 7 "Core/Inc/pwm.h"
 461              		.file 8 "Core/Inc/co2.h"
 462              		.file 9 "Drivers/STM32F0xx_HAL_Driver/Inc/stm32f0xx_hal_gpio.h"
ARM GAS  C:\Users\jisu8\AppData\Local\Temp\ccKhqaNj.s 			page 12


DEFINED SYMBOLS
                            *ABS*:00000000 led.c
C:\Users\jisu8\AppData\Local\Temp\ccKhqaNj.s:18     .text.LED_Control:00000000 $t
C:\Users\jisu8\AppData\Local\Temp\ccKhqaNj.s:24     .text.LED_Control:00000000 LED_Control
C:\Users\jisu8\AppData\Local\Temp\ccKhqaNj.s:425    .text.LED_Control:000001f8 $d
C:\Users\jisu8\AppData\Local\Temp\ccKhqaNj.s:451    .bss.LED_TimeCounter_Co2:00000000 LED_TimeCounter_Co2
C:\Users\jisu8\AppData\Local\Temp\ccKhqaNj.s:444    .bss.LED_TimeCounter:00000000 LED_TimeCounter
C:\Users\jisu8\AppData\Local\Temp\ccKhqaNj.s:440    .bss.LED_TimeCounter:00000000 $d
C:\Users\jisu8\AppData\Local\Temp\ccKhqaNj.s:447    .bss.LED_TimeCounter_Co2:00000000 $d

UNDEFINED SYMBOLS
HAL_GPIO_WritePin
Target_Run_Time
Pwm_Led_Mode
CO2_Data16
switch_submode
switch_overtemp
