ARM GAS  C:\Users\jisu8\AppData\Local\Temp\ccfxYGlm.s 			page 1


   1              		.cpu cortex-m0
   2              		.arch armv6s-m
   3              		.fpu softvfp
   4              		.eabi_attribute 20, 1
   5              		.eabi_attribute 21, 1
   6              		.eabi_attribute 23, 3
   7              		.eabi_attribute 24, 1
   8              		.eabi_attribute 25, 1
   9              		.eabi_attribute 26, 1
  10              		.eabi_attribute 30, 1
  11              		.eabi_attribute 34, 0
  12              		.eabi_attribute 18, 4
  13              		.file	"Os.c"
  14              		.text
  15              	.Ltext0:
  16              		.cfi_sections	.debug_frame
  17              		.section	.text.Os_1ms_Task,"ax",%progbits
  18              		.align	1
  19              		.syntax unified
  20              		.code	16
  21              		.thumb_func
  23              	Os_1ms_Task:
  24              	.LFB41:
  25              		.file 1 "Core/Src/Os.c"
   1:Core/Src/Os.c **** #include "os.h"
   2:Core/Src/Os.c **** #include "led.h"
   3:Core/Src/Os.c **** #include "pwm.h"
   4:Core/Src/Os.c **** #include "switch.h"
   5:Core/Src/Os.c **** #include "oled.h"
   6:Core/Src/Os.c **** #include "temp.h"
   7:Core/Src/Os.c **** #include "co2.h"
   8:Core/Src/Os.c **** #include "eeprom.h"
   9:Core/Src/Os.c **** 
  10:Core/Src/Os.c **** Os_Var_t Os_Var;
  11:Core/Src/Os.c **** 
  12:Core/Src/Os.c **** static void Os_Calc_Period(uint8 idx);
  13:Core/Src/Os.c **** static void Os_Calc_Runtime_Start(uint8 idx);
  14:Core/Src/Os.c **** static void Os_Calc_Runtime_Stop(uint8 idx);
  15:Core/Src/Os.c **** static void Os_1ms_Task(void);
  16:Core/Src/Os.c **** static void Os_10ms_Task(void);
  17:Core/Src/Os.c **** static void Os_100ms_Task(void);
  18:Core/Src/Os.c **** static void Os_Background_Task(void);
  19:Core/Src/Os.c **** 
  20:Core/Src/Os.c **** void Os_Init_Task(void)
  21:Core/Src/Os.c **** {
  22:Core/Src/Os.c **** 	OLED_Init();
  23:Core/Src/Os.c **** 	CO2_Init();
  24:Core/Src/Os.c **** 	Switch_Val_Init();
  25:Core/Src/Os.c **** }
  26:Core/Src/Os.c **** static void Os_1ms_Task(void)
  27:Core/Src/Os.c **** {
  26              		.loc 1 27 1 view -0
  27              		.cfi_startproc
  28              		@ args = 0, pretend = 0, frame = 0
  29              		@ frame_needed = 0, uses_anonymous_args = 0
  30              		@ link register save eliminated.
  28:Core/Src/Os.c **** 
ARM GAS  C:\Users\jisu8\AppData\Local\Temp\ccfxYGlm.s 			page 2


  29:Core/Src/Os.c **** }
  31              		.loc 1 29 1 view .LVU1
  32              		@ sp needed
  33 0000 7047     		bx	lr
  34              		.cfi_endproc
  35              	.LFE41:
  37              		.section	.text.Os_100ms_Task,"ax",%progbits
  38              		.align	1
  39              		.syntax unified
  40              		.code	16
  41              		.thumb_func
  43              	Os_100ms_Task:
  44              	.LFB43:
  30:Core/Src/Os.c **** 
  31:Core/Src/Os.c **** static void Os_10ms_Task(void)
  32:Core/Src/Os.c **** {
  33:Core/Src/Os.c **** 	Pwm_Output();
  34:Core/Src/Os.c **** 	Switch_Control();
  35:Core/Src/Os.c **** 	Temp_Read();
  36:Core/Src/Os.c **** 	CO2_Communication();
  37:Core/Src/Os.c **** }
  38:Core/Src/Os.c **** uint8 switch_mode_old;
  39:Core/Src/Os.c **** uint8 EEPROM_Write_Req;
  40:Core/Src/Os.c **** uint8 EEPROM_Write_cntReq;
  41:Core/Src/Os.c **** static void Os_100ms_Task(void)
  42:Core/Src/Os.c **** {
  45              		.loc 1 42 1 view -0
  46              		.cfi_startproc
  47              		@ args = 0, pretend = 0, frame = 0
  48              		@ frame_needed = 0, uses_anonymous_args = 0
  49 0000 10B5     		push	{r4, lr}
  50              	.LCFI0:
  51              		.cfi_def_cfa_offset 8
  52              		.cfi_offset 4, -8
  53              		.cfi_offset 14, -4
  43:Core/Src/Os.c **** 
  44:Core/Src/Os.c **** 	LED_Control();
  54              		.loc 1 44 2 view .LVU3
  55 0002 FFF7FEFF 		bl	LED_Control
  56              	.LVL0:
  45:Core/Src/Os.c **** 	OLED_Display();
  57              		.loc 1 45 2 view .LVU4
  58 0006 FFF7FEFF 		bl	OLED_Display
  59              	.LVL1:
  46:Core/Src/Os.c **** 	if(((switch_mode_old == SWITCH_MODE_MENUSELECT)&&(switch_mode == SWITCH_MODE_RUN))||
  60              		.loc 1 46 2 view .LVU5
  61              		.loc 1 46 84 is_stmt 0 view .LVU6
  62 000a 144B     		ldr	r3, .L7
  63 000c 1B78     		ldrb	r3, [r3]
  64 000e 013B     		subs	r3, r3, #1
  65 0010 DBB2     		uxtb	r3, r3
  66              		.loc 1 46 4 view .LVU7
  67 0012 012B     		cmp	r3, #1
  68 0014 08D9     		bls	.L5
  69              	.L3:
  47:Core/Src/Os.c **** 	    ((switch_mode_old == SWITCH_MODE_CUSTOM)&&(switch_mode == SWITCH_MODE_RUN)))
  48:Core/Src/Os.c **** 	{
ARM GAS  C:\Users\jisu8\AppData\Local\Temp\ccfxYGlm.s 			page 3


  49:Core/Src/Os.c **** 		EEPROM_Erase();
  50:Core/Src/Os.c **** 		EEPROM_Write_Req = 1;
  51:Core/Src/Os.c **** 	}
  52:Core/Src/Os.c **** 	switch_mode_old = switch_mode;
  70              		.loc 1 52 2 is_stmt 1 view .LVU8
  71              		.loc 1 52 18 is_stmt 0 view .LVU9
  72 0016 124B     		ldr	r3, .L7+4
  73 0018 1A78     		ldrb	r2, [r3]
  74 001a 104B     		ldr	r3, .L7
  75 001c 1A70     		strb	r2, [r3]
  53:Core/Src/Os.c **** 
  54:Core/Src/Os.c **** 	if(EEPROM_Write_Req == 1)
  76              		.loc 1 54 2 is_stmt 1 view .LVU10
  77              		.loc 1 54 22 is_stmt 0 view .LVU11
  78 001e 114B     		ldr	r3, .L7+8
  79 0020 1B78     		ldrb	r3, [r3]
  80              		.loc 1 54 4 view .LVU12
  81 0022 012B     		cmp	r3, #1
  82 0024 0AD0     		beq	.L6
  83              	.L2:
  55:Core/Src/Os.c **** 	{
  56:Core/Src/Os.c **** 		EEPROM_Write();
  57:Core/Src/Os.c **** 		EEPROM_Write_cntReq++;
  58:Core/Src/Os.c **** 		if(EEPROM_Write_cntReq>=8)
  59:Core/Src/Os.c **** 		{
  60:Core/Src/Os.c **** 			EEPROM_Write_Req = 0;
  61:Core/Src/Os.c **** 			EEPROM_Write_cntReq = 0;
  62:Core/Src/Os.c **** 		}
  63:Core/Src/Os.c **** 	}
  64:Core/Src/Os.c **** }
  84              		.loc 1 64 1 view .LVU13
  85              		@ sp needed
  86 0026 10BD     		pop	{r4, pc}
  87              	.L5:
  46:Core/Src/Os.c **** 	    ((switch_mode_old == SWITCH_MODE_CUSTOM)&&(switch_mode == SWITCH_MODE_RUN)))
  88              		.loc 1 46 64 discriminator 1 view .LVU14
  89 0028 0D4B     		ldr	r3, .L7+4
  90 002a 1B78     		ldrb	r3, [r3]
  46:Core/Src/Os.c **** 	    ((switch_mode_old == SWITCH_MODE_CUSTOM)&&(switch_mode == SWITCH_MODE_RUN)))
  91              		.loc 1 46 84 discriminator 1 view .LVU15
  92 002c 032B     		cmp	r3, #3
  93 002e F2D1     		bne	.L3
  49:Core/Src/Os.c **** 		EEPROM_Write_Req = 1;
  94              		.loc 1 49 3 is_stmt 1 view .LVU16
  95 0030 FFF7FEFF 		bl	EEPROM_Erase
  96              	.LVL2:
  50:Core/Src/Os.c **** 	}
  97              		.loc 1 50 3 view .LVU17
  50:Core/Src/Os.c **** 	}
  98              		.loc 1 50 20 is_stmt 0 view .LVU18
  99 0034 0B4B     		ldr	r3, .L7+8
 100 0036 0122     		movs	r2, #1
 101 0038 1A70     		strb	r2, [r3]
 102 003a ECE7     		b	.L3
 103              	.L6:
  56:Core/Src/Os.c **** 		EEPROM_Write_cntReq++;
 104              		.loc 1 56 3 is_stmt 1 view .LVU19
ARM GAS  C:\Users\jisu8\AppData\Local\Temp\ccfxYGlm.s 			page 4


 105 003c FFF7FEFF 		bl	EEPROM_Write
 106              	.LVL3:
  57:Core/Src/Os.c **** 		if(EEPROM_Write_cntReq>=8)
 107              		.loc 1 57 3 view .LVU20
  57:Core/Src/Os.c **** 		if(EEPROM_Write_cntReq>=8)
 108              		.loc 1 57 22 is_stmt 0 view .LVU21
 109 0040 094A     		ldr	r2, .L7+12
 110 0042 1378     		ldrb	r3, [r2]
 111 0044 0133     		adds	r3, r3, #1
 112 0046 DBB2     		uxtb	r3, r3
 113 0048 1370     		strb	r3, [r2]
  58:Core/Src/Os.c **** 		{
 114              		.loc 1 58 3 is_stmt 1 view .LVU22
  58:Core/Src/Os.c **** 		{
 115              		.loc 1 58 5 is_stmt 0 view .LVU23
 116 004a 072B     		cmp	r3, #7
 117 004c EBD9     		bls	.L2
  60:Core/Src/Os.c **** 			EEPROM_Write_cntReq = 0;
 118              		.loc 1 60 4 is_stmt 1 view .LVU24
  60:Core/Src/Os.c **** 			EEPROM_Write_cntReq = 0;
 119              		.loc 1 60 21 is_stmt 0 view .LVU25
 120 004e 0023     		movs	r3, #0
 121 0050 044A     		ldr	r2, .L7+8
 122 0052 1370     		strb	r3, [r2]
  61:Core/Src/Os.c **** 		}
 123              		.loc 1 61 4 is_stmt 1 view .LVU26
  61:Core/Src/Os.c **** 		}
 124              		.loc 1 61 24 is_stmt 0 view .LVU27
 125 0054 044A     		ldr	r2, .L7+12
 126 0056 1370     		strb	r3, [r2]
 127              		.loc 1 64 1 view .LVU28
 128 0058 E5E7     		b	.L2
 129              	.L8:
 130 005a C046     		.align	2
 131              	.L7:
 132 005c 00000000 		.word	.LANCHOR0
 133 0060 00000000 		.word	switch_mode
 134 0064 00000000 		.word	.LANCHOR1
 135 0068 00000000 		.word	.LANCHOR2
 136              		.cfi_endproc
 137              	.LFE43:
 139              		.section	.text.Os_10ms_Task,"ax",%progbits
 140              		.align	1
 141              		.syntax unified
 142              		.code	16
 143              		.thumb_func
 145              	Os_10ms_Task:
 146              	.LFB42:
  32:Core/Src/Os.c **** 	Pwm_Output();
 147              		.loc 1 32 1 is_stmt 1 view -0
 148              		.cfi_startproc
 149              		@ args = 0, pretend = 0, frame = 0
 150              		@ frame_needed = 0, uses_anonymous_args = 0
 151 0000 10B5     		push	{r4, lr}
 152              	.LCFI1:
 153              		.cfi_def_cfa_offset 8
 154              		.cfi_offset 4, -8
ARM GAS  C:\Users\jisu8\AppData\Local\Temp\ccfxYGlm.s 			page 5


 155              		.cfi_offset 14, -4
  33:Core/Src/Os.c **** 	Switch_Control();
 156              		.loc 1 33 2 view .LVU30
 157 0002 FFF7FEFF 		bl	Pwm_Output
 158              	.LVL4:
  34:Core/Src/Os.c **** 	Temp_Read();
 159              		.loc 1 34 2 view .LVU31
 160 0006 FFF7FEFF 		bl	Switch_Control
 161              	.LVL5:
  35:Core/Src/Os.c **** 	CO2_Communication();
 162              		.loc 1 35 2 view .LVU32
 163 000a FFF7FEFF 		bl	Temp_Read
 164              	.LVL6:
  36:Core/Src/Os.c **** }
 165              		.loc 1 36 2 view .LVU33
 166 000e FFF7FEFF 		bl	CO2_Communication
 167              	.LVL7:
  37:Core/Src/Os.c **** uint8 switch_mode_old;
 168              		.loc 1 37 1 is_stmt 0 view .LVU34
 169              		@ sp needed
 170 0012 10BD     		pop	{r4, pc}
 171              		.cfi_endproc
 172              	.LFE42:
 174              		.section	.text.Os_Init_Task,"ax",%progbits
 175              		.align	1
 176              		.global	Os_Init_Task
 177              		.syntax unified
 178              		.code	16
 179              		.thumb_func
 181              	Os_Init_Task:
 182              	.LFB40:
  21:Core/Src/Os.c **** 	OLED_Init();
 183              		.loc 1 21 1 is_stmt 1 view -0
 184              		.cfi_startproc
 185              		@ args = 0, pretend = 0, frame = 0
 186              		@ frame_needed = 0, uses_anonymous_args = 0
 187 0000 10B5     		push	{r4, lr}
 188              	.LCFI2:
 189              		.cfi_def_cfa_offset 8
 190              		.cfi_offset 4, -8
 191              		.cfi_offset 14, -4
  22:Core/Src/Os.c **** 	CO2_Init();
 192              		.loc 1 22 2 view .LVU36
 193 0002 FFF7FEFF 		bl	OLED_Init
 194              	.LVL8:
  23:Core/Src/Os.c **** 	Switch_Val_Init();
 195              		.loc 1 23 2 view .LVU37
 196 0006 FFF7FEFF 		bl	CO2_Init
 197              	.LVL9:
  24:Core/Src/Os.c **** }
 198              		.loc 1 24 2 view .LVU38
 199 000a FFF7FEFF 		bl	Switch_Val_Init
 200              	.LVL10:
  25:Core/Src/Os.c **** static void Os_1ms_Task(void)
 201              		.loc 1 25 1 is_stmt 0 view .LVU39
 202              		@ sp needed
 203 000e 10BD     		pop	{r4, pc}
ARM GAS  C:\Users\jisu8\AppData\Local\Temp\ccfxYGlm.s 			page 6


 204              		.cfi_endproc
 205              	.LFE40:
 207              		.section	.text.Os_Time_Handler,"ax",%progbits
 208              		.align	1
 209              		.global	Os_Time_Handler
 210              		.syntax unified
 211              		.code	16
 212              		.thumb_func
 214              	Os_Time_Handler:
 215              	.LFB45:
  65:Core/Src/Os.c **** 
  66:Core/Src/Os.c **** static void Os_Background_Task(void)
  67:Core/Src/Os.c **** {
  68:Core/Src/Os.c **** 
  69:Core/Src/Os.c **** }
  70:Core/Src/Os.c **** 
  71:Core/Src/Os.c **** void Os_Time_Handler(void)
  72:Core/Src/Os.c **** {
 216              		.loc 1 72 1 is_stmt 1 view -0
 217              		.cfi_startproc
 218              		@ args = 0, pretend = 0, frame = 0
 219              		@ frame_needed = 0, uses_anonymous_args = 0
 220              		@ link register save eliminated.
  73:Core/Src/Os.c **** 	Os_Var.Os_Counter.Os_100us_Counter++;
 221              		.loc 1 73 2 view .LVU41
 222              		.loc 1 73 19 is_stmt 0 view .LVU42
 223 0000 024A     		ldr	r2, .L12
 224              		.loc 1 73 36 view .LVU43
 225 0002 1368     		ldr	r3, [r2]
 226 0004 0133     		adds	r3, r3, #1
 227 0006 1360     		str	r3, [r2]
  74:Core/Src/Os.c **** }
 228              		.loc 1 74 1 view .LVU44
 229              		@ sp needed
 230 0008 7047     		bx	lr
 231              	.L13:
 232 000a C046     		.align	2
 233              	.L12:
 234 000c 00000000 		.word	.LANCHOR3
 235              		.cfi_endproc
 236              	.LFE45:
 238              		.section	.text.Os_Get_Tick_100us,"ax",%progbits
 239              		.align	1
 240              		.global	Os_Get_Tick_100us
 241              		.syntax unified
 242              		.code	16
 243              		.thumb_func
 245              	Os_Get_Tick_100us:
 246              	.LFB49:
  75:Core/Src/Os.c **** 
  76:Core/Src/Os.c **** void Os_Handler(void)
  77:Core/Src/Os.c **** {
  78:Core/Src/Os.c **** 	void(*fp)(void);
  79:Core/Src/Os.c ****     if(Os_Var.Os_Task_Flag.Os_100ms_Flag == 1)
  80:Core/Src/Os.c **** 	{
  81:Core/Src/Os.c **** 		fp = Os_100ms_Task;
  82:Core/Src/Os.c **** 		Os_Var.Os_Task_Add.Os_100ms_Address = fp;
ARM GAS  C:\Users\jisu8\AppData\Local\Temp\ccfxYGlm.s 			page 7


  83:Core/Src/Os.c **** 		Os_Var.Os_Task_Flag.Os_100ms_Flag = 0;
  84:Core/Src/Os.c **** 		Os_Calc_Runtime_Start(OS_TASK_INDEX_100MS);
  85:Core/Src/Os.c **** 		(void)Os_100ms_Task();
  86:Core/Src/Os.c **** 		Os_Calc_Runtime_Stop(OS_TASK_INDEX_100MS);
  87:Core/Src/Os.c **** 		Os_Calc_Period(OS_TASK_INDEX_100MS);
  88:Core/Src/Os.c **** 	}
  89:Core/Src/Os.c **** 	else
  90:Core/Src/Os.c **** 	{
  91:Core/Src/Os.c **** 		Os_Calc_Runtime_Start(OS_TASK_INDEX_BG);
  92:Core/Src/Os.c **** 		(void)Os_Background_Task();
  93:Core/Src/Os.c **** 		Os_Calc_Runtime_Stop(OS_TASK_INDEX_BG);
  94:Core/Src/Os.c **** 		Os_Calc_Period(OS_TASK_INDEX_BG);
  95:Core/Src/Os.c **** 	}
  96:Core/Src/Os.c **** 
  97:Core/Src/Os.c ****     return;
  98:Core/Src/Os.c **** }
  99:Core/Src/Os.c **** 
 100:Core/Src/Os.c **** void Os_Handler_1ms(void)
 101:Core/Src/Os.c **** {
 102:Core/Src/Os.c **** 	if(Os_Var.Os_Counter.Os_1ms_Counter % 1 == 0)
 103:Core/Src/Os.c **** 	{
 104:Core/Src/Os.c **** 		Os_Var.Os_Counter.Os_1ms_Counter++;
 105:Core/Src/Os.c **** 		Os_Var.Os_Task_Flag.Os_1ms_Flag = 1;
 106:Core/Src/Os.c **** 	}
 107:Core/Src/Os.c **** 
 108:Core/Src/Os.c **** 	if(Os_Var.Os_Counter.Os_1ms_Counter % 100 == 0)
 109:Core/Src/Os.c **** 	{
 110:Core/Src/Os.c **** 		Os_Var.Os_Counter.Os_100ms_Counter++;
 111:Core/Src/Os.c **** 		Os_Var.Os_Task_Flag.Os_100ms_Flag = 1;
 112:Core/Src/Os.c **** 	}
 113:Core/Src/Os.c **** 	void(*fp)(void);
 114:Core/Src/Os.c **** 	if(Os_Var.Os_Task_Flag.Os_1ms_Flag == 1)
 115:Core/Src/Os.c **** 	{
 116:Core/Src/Os.c **** 		fp = Os_1ms_Task;
 117:Core/Src/Os.c **** 		Os_Var.Os_Task_Add.Os_1ms_Address = fp;
 118:Core/Src/Os.c **** 		Os_Var.Os_Task_Flag.Os_1ms_Flag = 0;
 119:Core/Src/Os.c **** 		Os_Calc_Runtime_Start(OS_TASK_INDEX_1MS);
 120:Core/Src/Os.c **** 		(void)Os_1ms_Task();
 121:Core/Src/Os.c **** 		Os_Calc_Runtime_Stop(OS_TASK_INDEX_1MS);
 122:Core/Src/Os.c **** 		Os_Calc_Period(OS_TASK_INDEX_1MS);
 123:Core/Src/Os.c **** 	}
 124:Core/Src/Os.c **** }
 125:Core/Src/Os.c **** 
 126:Core/Src/Os.c **** void Os_Handler_10ms(void)
 127:Core/Src/Os.c **** {
 128:Core/Src/Os.c **** 	Os_Var.Os_Counter.Os_10ms_Counter++;
 129:Core/Src/Os.c **** 	Os_Var.Os_Task_Flag.Os_10ms_Flag = 1;
 130:Core/Src/Os.c **** 	void(*fp)(void);
 131:Core/Src/Os.c **** 	if(Os_Var.Os_Task_Flag.Os_10ms_Flag == 1)
 132:Core/Src/Os.c **** 	{
 133:Core/Src/Os.c **** 		fp = Os_10ms_Task;
 134:Core/Src/Os.c **** 		Os_Var.Os_Task_Add.Os_10ms_Address = fp;
 135:Core/Src/Os.c **** 		Os_Var.Os_Task_Flag.Os_10ms_Flag = 0;
 136:Core/Src/Os.c **** 		Os_Calc_Runtime_Start(OS_TASK_INDEX_10MS);
 137:Core/Src/Os.c **** 		(void)Os_10ms_Task();
 138:Core/Src/Os.c **** 		Os_Calc_Runtime_Stop(OS_TASK_INDEX_10MS);
 139:Core/Src/Os.c **** 		Os_Calc_Period(OS_TASK_INDEX_10MS);
ARM GAS  C:\Users\jisu8\AppData\Local\Temp\ccfxYGlm.s 			page 8


 140:Core/Src/Os.c **** 	}
 141:Core/Src/Os.c **** }
 142:Core/Src/Os.c **** 
 143:Core/Src/Os.c **** uint32 Os_Get_Tick_100us(void)
 144:Core/Src/Os.c **** {
 247              		.loc 1 144 1 is_stmt 1 view -0
 248              		.cfi_startproc
 249              		@ args = 0, pretend = 0, frame = 0
 250              		@ frame_needed = 0, uses_anonymous_args = 0
 251              		@ link register save eliminated.
 145:Core/Src/Os.c **** 	return Os_Var.Os_Counter.Os_100us_Counter;
 252              		.loc 1 145 2 view .LVU46
 253              		.loc 1 145 26 is_stmt 0 view .LVU47
 254 0000 014B     		ldr	r3, .L15
 255 0002 1868     		ldr	r0, [r3]
 146:Core/Src/Os.c **** }
 256              		.loc 1 146 1 view .LVU48
 257              		@ sp needed
 258 0004 7047     		bx	lr
 259              	.L16:
 260 0006 C046     		.align	2
 261              	.L15:
 262 0008 00000000 		.word	.LANCHOR3
 263              		.cfi_endproc
 264              	.LFE49:
 266              		.section	.text.Os_Calc_Runtime_Start,"ax",%progbits
 267              		.align	1
 268              		.syntax unified
 269              		.code	16
 270              		.thumb_func
 272              	Os_Calc_Runtime_Start:
 273              	.LVL11:
 274              	.LFB51:
 147:Core/Src/Os.c **** 
 148:Core/Src/Os.c **** static void Os_Calc_Period(uint8 idx)
 149:Core/Src/Os.c **** {
 150:Core/Src/Os.c **** 	uint32 OS_TimeLoc=0;
 151:Core/Src/Os.c **** 	uint32 OS_TimeOldLoc=0;
 152:Core/Src/Os.c **** 	uint32 Os_TimeDiffLoc=0;
 153:Core/Src/Os.c **** 
 154:Core/Src/Os.c **** 	OS_TimeLoc = Os_Get_Tick_100us();
 155:Core/Src/Os.c **** 
 156:Core/Src/Os.c **** 	switch(idx)
 157:Core/Src/Os.c **** 	{
 158:Core/Src/Os.c **** 		case OS_TASK_INDEX_1MS : 
 159:Core/Src/Os.c **** 			OS_TimeOldLoc = Os_Var.Os_Tick_Period.Os_1ms_Tick_Period;
 160:Core/Src/Os.c **** 		break;
 161:Core/Src/Os.c **** 		case OS_TASK_INDEX_10MS : 
 162:Core/Src/Os.c **** 			OS_TimeOldLoc = Os_Var.Os_Tick_Period.Os_10ms_Tick_Period;
 163:Core/Src/Os.c **** 		break;
 164:Core/Src/Os.c **** 		case OS_TASK_INDEX_100MS : 
 165:Core/Src/Os.c **** 			OS_TimeOldLoc = Os_Var.Os_Tick_Period.Os_100ms_Tick_Period;
 166:Core/Src/Os.c **** 		break;
 167:Core/Src/Os.c **** 	}
 168:Core/Src/Os.c **** 
 169:Core/Src/Os.c **** 	Os_TimeDiffLoc = OS_TimeLoc - OS_TimeOldLoc;
 170:Core/Src/Os.c **** 	OS_TimeOldLoc = OS_TimeLoc;
ARM GAS  C:\Users\jisu8\AppData\Local\Temp\ccfxYGlm.s 			page 9


 171:Core/Src/Os.c **** 	
 172:Core/Src/Os.c **** 	switch(idx)
 173:Core/Src/Os.c **** 	{
 174:Core/Src/Os.c **** 		case OS_TASK_INDEX_1MS : 
 175:Core/Src/Os.c **** 			Os_Var.Os_Period.Os_1ms_Period = Os_TimeDiffLoc;
 176:Core/Src/Os.c **** 			Os_Var.Os_Tick_Period.Os_1ms_Tick_Period = OS_TimeOldLoc;
 177:Core/Src/Os.c **** 		break;
 178:Core/Src/Os.c **** 		case OS_TASK_INDEX_10MS : 
 179:Core/Src/Os.c **** 			Os_Var.Os_Period.Os_10ms_Period = Os_TimeDiffLoc;
 180:Core/Src/Os.c **** 			Os_Var.Os_Tick_Period.Os_10ms_Tick_Period = OS_TimeOldLoc;
 181:Core/Src/Os.c **** 		break;
 182:Core/Src/Os.c **** 		case OS_TASK_INDEX_100MS : 
 183:Core/Src/Os.c **** 			Os_Var.Os_Period.Os_100ms_Period = Os_TimeDiffLoc;
 184:Core/Src/Os.c **** 			Os_Var.Os_Tick_Period.Os_100ms_Tick_Period = OS_TimeOldLoc;
 185:Core/Src/Os.c **** 		break;
 186:Core/Src/Os.c **** 	}
 187:Core/Src/Os.c **** 	
 188:Core/Src/Os.c **** 	return;
 189:Core/Src/Os.c **** }
 190:Core/Src/Os.c **** 
 191:Core/Src/Os.c **** static void Os_Calc_Runtime_Start(uint8 idx)
 192:Core/Src/Os.c **** {
 275              		.loc 1 192 1 is_stmt 1 view -0
 276              		.cfi_startproc
 277              		@ args = 0, pretend = 0, frame = 0
 278              		@ frame_needed = 0, uses_anonymous_args = 0
 279              		.loc 1 192 1 is_stmt 0 view .LVU50
 280 0000 10B5     		push	{r4, lr}
 281              	.LCFI3:
 282              		.cfi_def_cfa_offset 8
 283              		.cfi_offset 4, -8
 284              		.cfi_offset 14, -4
 285 0002 0400     		movs	r4, r0
 193:Core/Src/Os.c **** 	uint32 OS_TimeLoc=0;
 286              		.loc 1 193 2 is_stmt 1 view .LVU51
 287              	.LVL12:
 194:Core/Src/Os.c **** 
 195:Core/Src/Os.c **** 	OS_TimeLoc = Os_Get_Tick_100us();
 288              		.loc 1 195 2 view .LVU52
 289              		.loc 1 195 15 is_stmt 0 view .LVU53
 290 0004 FFF7FEFF 		bl	Os_Get_Tick_100us
 291              	.LVL13:
 196:Core/Src/Os.c **** 
 197:Core/Src/Os.c **** 	switch(idx)
 292              		.loc 1 197 2 is_stmt 1 view .LVU54
 293 0008 022C     		cmp	r4, #2
 294 000a 07D0     		beq	.L18
 295 000c 032C     		cmp	r4, #3
 296 000e 08D0     		beq	.L19
 297 0010 012C     		cmp	r4, #1
 298 0012 00D0     		beq	.L21
 299              	.L17:
 198:Core/Src/Os.c **** 	{
 199:Core/Src/Os.c **** 		case OS_TASK_INDEX_1MS : 
 200:Core/Src/Os.c **** 			Os_Var.Os_Tick_Runtime.Os_1ms_Tick_Runtime_Start = OS_TimeLoc;
 201:Core/Src/Os.c **** 		break;
 202:Core/Src/Os.c **** 		case OS_TASK_INDEX_10MS : 
ARM GAS  C:\Users\jisu8\AppData\Local\Temp\ccfxYGlm.s 			page 10


 203:Core/Src/Os.c **** 			Os_Var.Os_Tick_Runtime.Os_10ms_Tick_Runtime_Start = OS_TimeLoc;
 204:Core/Src/Os.c **** 		break;
 205:Core/Src/Os.c **** 		case OS_TASK_INDEX_100MS : 
 206:Core/Src/Os.c **** 			Os_Var.Os_Tick_Runtime.Os_100ms_Tick_Runtime_Start = OS_TimeLoc;
 207:Core/Src/Os.c **** 		break;
 208:Core/Src/Os.c **** 	}
 209:Core/Src/Os.c **** 
 210:Core/Src/Os.c **** 	return;
 211:Core/Src/Os.c **** }
 300              		.loc 1 211 1 is_stmt 0 view .LVU55
 301              		@ sp needed
 302 0014 10BD     		pop	{r4, pc}
 303              	.L21:
 200:Core/Src/Os.c **** 		break;
 304              		.loc 1 200 4 is_stmt 1 view .LVU56
 200:Core/Src/Os.c **** 		break;
 305              		.loc 1 200 53 is_stmt 0 view .LVU57
 306 0016 044B     		ldr	r3, .L22
 307 0018 1861     		str	r0, [r3, #16]
 201:Core/Src/Os.c **** 		case OS_TASK_INDEX_10MS : 
 308              		.loc 1 201 3 is_stmt 1 view .LVU58
 309 001a FBE7     		b	.L17
 310              	.L18:
 203:Core/Src/Os.c **** 		break;
 311              		.loc 1 203 4 view .LVU59
 203:Core/Src/Os.c **** 		break;
 312              		.loc 1 203 54 is_stmt 0 view .LVU60
 313 001c 024B     		ldr	r3, .L22
 314 001e 9861     		str	r0, [r3, #24]
 204:Core/Src/Os.c **** 		case OS_TASK_INDEX_100MS : 
 315              		.loc 1 204 3 is_stmt 1 view .LVU61
 316 0020 F8E7     		b	.L17
 317              	.L19:
 206:Core/Src/Os.c **** 		break;
 318              		.loc 1 206 4 view .LVU62
 206:Core/Src/Os.c **** 		break;
 319              		.loc 1 206 55 is_stmt 0 view .LVU63
 320 0022 014B     		ldr	r3, .L22
 321 0024 1862     		str	r0, [r3, #32]
 207:Core/Src/Os.c **** 	}
 322              		.loc 1 207 3 is_stmt 1 view .LVU64
 210:Core/Src/Os.c **** }
 323              		.loc 1 210 2 view .LVU65
 324 0026 F5E7     		b	.L17
 325              	.L23:
 326              		.align	2
 327              	.L22:
 328 0028 00000000 		.word	.LANCHOR3
 329              		.cfi_endproc
 330              	.LFE51:
 332              		.section	.text.Os_Calc_Runtime_Stop,"ax",%progbits
 333              		.align	1
 334              		.syntax unified
 335              		.code	16
 336              		.thumb_func
 338              	Os_Calc_Runtime_Stop:
 339              	.LVL14:
ARM GAS  C:\Users\jisu8\AppData\Local\Temp\ccfxYGlm.s 			page 11


 340              	.LFB52:
 212:Core/Src/Os.c **** 
 213:Core/Src/Os.c **** static void Os_Calc_Runtime_Stop(uint8 idx)
 214:Core/Src/Os.c **** {
 341              		.loc 1 214 1 view -0
 342              		.cfi_startproc
 343              		@ args = 0, pretend = 0, frame = 0
 344              		@ frame_needed = 0, uses_anonymous_args = 0
 345              		.loc 1 214 1 is_stmt 0 view .LVU67
 346 0000 10B5     		push	{r4, lr}
 347              	.LCFI4:
 348              		.cfi_def_cfa_offset 8
 349              		.cfi_offset 4, -8
 350              		.cfi_offset 14, -4
 351 0002 0400     		movs	r4, r0
 215:Core/Src/Os.c **** 	uint32 OS_TimeLoc=0;
 352              		.loc 1 215 2 is_stmt 1 view .LVU68
 353              	.LVL15:
 216:Core/Src/Os.c **** 	uint32 OS_TimeOldLoc=0;
 354              		.loc 1 216 2 view .LVU69
 217:Core/Src/Os.c **** 	uint32 Os_TimeDiffLoc=0;
 355              		.loc 1 217 2 view .LVU70
 218:Core/Src/Os.c **** 
 219:Core/Src/Os.c **** 	OS_TimeLoc = Os_Get_Tick_100us();
 356              		.loc 1 219 2 view .LVU71
 357              		.loc 1 219 15 is_stmt 0 view .LVU72
 358 0004 FFF7FEFF 		bl	Os_Get_Tick_100us
 359              	.LVL16:
 220:Core/Src/Os.c **** 
 221:Core/Src/Os.c **** 	switch(idx)
 360              		.loc 1 221 2 is_stmt 1 view .LVU73
 361 0008 022C     		cmp	r4, #2
 362 000a 0FD0     		beq	.L25
 363 000c 032C     		cmp	r4, #3
 364 000e 10D0     		beq	.L26
 365 0010 012C     		cmp	r4, #1
 366 0012 08D0     		beq	.L32
 367 0014 0023     		movs	r3, #0
 368              	.LVL17:
 369              	.L27:
 222:Core/Src/Os.c **** 	{
 223:Core/Src/Os.c **** 		case OS_TASK_INDEX_1MS : 
 224:Core/Src/Os.c **** 			OS_TimeOldLoc = Os_Var.Os_Tick_Runtime.Os_1ms_Tick_Runtime_Start;
 225:Core/Src/Os.c **** 		break;
 226:Core/Src/Os.c **** 		case OS_TASK_INDEX_10MS : 
 227:Core/Src/Os.c **** 			OS_TimeOldLoc = Os_Var.Os_Tick_Runtime.Os_10ms_Tick_Runtime_Start;
 228:Core/Src/Os.c **** 		break;
 229:Core/Src/Os.c **** 		case OS_TASK_INDEX_100MS : 
 230:Core/Src/Os.c **** 			OS_TimeOldLoc = Os_Var.Os_Tick_Runtime.Os_100ms_Tick_Runtime_Start;
 231:Core/Src/Os.c **** 		break;
 232:Core/Src/Os.c **** 	}
 233:Core/Src/Os.c **** 
 234:Core/Src/Os.c **** 	Os_TimeDiffLoc = OS_TimeLoc - OS_TimeOldLoc;
 370              		.loc 1 234 2 view .LVU74
 371              		.loc 1 234 17 is_stmt 0 view .LVU75
 372 0016 C31A     		subs	r3, r0, r3
 373              	.LVL18:
ARM GAS  C:\Users\jisu8\AppData\Local\Temp\ccfxYGlm.s 			page 12


 235:Core/Src/Os.c **** 
 236:Core/Src/Os.c **** 	switch(idx)
 374              		.loc 1 236 2 is_stmt 1 view .LVU76
 375 0018 022C     		cmp	r4, #2
 376 001a 11D0     		beq	.L28
 377 001c 032C     		cmp	r4, #3
 378 001e 13D0     		beq	.L29
 379 0020 012C     		cmp	r4, #1
 380 0022 09D0     		beq	.L33
 381              	.L24:
 237:Core/Src/Os.c **** 	{
 238:Core/Src/Os.c **** 		case OS_TASK_INDEX_1MS : 
 239:Core/Src/Os.c **** 			Os_Var.Os_Runtime.Os_1ms_Runtime = Os_TimeDiffLoc;
 240:Core/Src/Os.c **** 			Os_Var.Os_Tick_Runtime.Os_1ms_Tick_Runtime_Stop = OS_TimeLoc;
 241:Core/Src/Os.c **** 		break;
 242:Core/Src/Os.c **** 		case OS_TASK_INDEX_10MS : 
 243:Core/Src/Os.c **** 			Os_Var.Os_Runtime.Os_10ms_Runtime = Os_TimeDiffLoc;
 244:Core/Src/Os.c **** 			Os_Var.Os_Tick_Runtime.Os_10ms_Tick_Runtime_Stop = OS_TimeLoc;
 245:Core/Src/Os.c **** 		break;
 246:Core/Src/Os.c **** 		case OS_TASK_INDEX_100MS : 
 247:Core/Src/Os.c **** 			Os_Var.Os_Runtime.Os_100ms_Runtime = Os_TimeDiffLoc;
 248:Core/Src/Os.c **** 			Os_Var.Os_Tick_Runtime.Os_100ms_Tick_Runtime_Stop = OS_TimeLoc;
 249:Core/Src/Os.c **** 		break;
 250:Core/Src/Os.c **** 	}
 251:Core/Src/Os.c **** 
 252:Core/Src/Os.c **** 	return;
 253:Core/Src/Os.c **** }...
 382              		.loc 1 253 1 is_stmt 0 view .LVU77
 383              		@ sp needed
 384 0024 10BD     		pop	{r4, pc}
 385              	.LVL19:
 386              	.L32:
 224:Core/Src/Os.c **** 			OS_TimeOldLoc = Os_Var.Os_Tick_Runtime.Os_1ms_Tick_Runtime_Start;
 387              		.loc 1 224 4 is_stmt 1 view .LVU78
 224:Core/Src/Os.c **** 			OS_TimeOldLoc = Os_Var.Os_Tick_Runtime.Os_1ms_Tick_Runtime_Start;
 388              		.loc 1 224 18 is_stmt 0 view .LVU79
 389 0026 0A4B     		ldr	r3, .L34
 390 0028 1B69     		ldr	r3, [r3, #16]
 391              	.LVL20:
 225:Core/Src/Os.c **** 		break;
 392              		.loc 1 225 3 is_stmt 1 view .LVU80
 393 002a F4E7     		b	.L27
 394              	.LVL21:
 395              	.L25:
 227:Core/Src/Os.c **** 			OS_TimeOldLoc = Os_Var.Os_Tick_Runtime.Os_10ms_Tick_Runtime_Start;
 396              		.loc 1 227 4 view .LVU81
 227:Core/Src/Os.c **** 			OS_TimeOldLoc = Os_Var.Os_Tick_Runtime.Os_10ms_Tick_Runtime_Start;
 397              		.loc 1 227 18 is_stmt 0 view .LVU82
 398 002c 084B     		ldr	r3, .L34
 399 002e 9B69     		ldr	r3, [r3, #24]
 400              	.LVL22:
 228:Core/Src/Os.c **** 		break;
 401              		.loc 1 228 3 is_stmt 1 view .LVU83
 402 0030 F1E7     		b	.L27
 403              	.LVL23:
 404              	.L26:
 230:Core/Src/Os.c **** 			OS_TimeOldLoc = Os_Var.Os_Tick_Runtime.Os_100ms_Tick_Runtime_Start;
ARM GAS  C:\Users\jisu8\AppData\Local\Temp\ccfxYGlm.s 			page 13


 405              		.loc 1 230 4 view .LVU84
 230:Core/Src/Os.c **** 			OS_TimeOldLoc = Os_Var.Os_Tick_Runtime.Os_100ms_Tick_Runtime_Start;
 406              		.loc 1 230 18 is_stmt 0 view .LVU85
 407 0032 074B     		ldr	r3, .L34
 408 0034 1B6A     		ldr	r3, [r3, #32]
 409              	.LVL24:
 231:Core/Src/Os.c **** 		break;
 410              		.loc 1 231 3 is_stmt 1 view .LVU86
 411 0036 EEE7     		b	.L27
 412              	.LVL25:
 413              	.L33:
 239:Core/Src/Os.c **** 			Os_Var.Os_Runtime.Os_1ms_Runtime = Os_TimeDiffLoc;
 414              		.loc 1 239 4 view .LVU87
 239:Core/Src/Os.c **** 			Os_Var.Os_Runtime.Os_1ms_Runtime = Os_TimeDiffLoc;
 415              		.loc 1 239 37 is_stmt 0 view .LVU88
 416 0038 054A     		ldr	r2, .L34
 417 003a 5363     		str	r3, [r2, #52]
 240:Core/Src/Os.c **** 			Os_Var.Os_Tick_Runtime.Os_1ms_Tick_Runtime_Stop = OS_TimeLoc;
 418              		.loc 1 240 4 is_stmt 1 view .LVU89
 240:Core/Src/Os.c **** 			Os_Var.Os_Tick_Runtime.Os_1ms_Tick_Runtime_Stop = OS_TimeLoc;
 419              		.loc 1 240 52 is_stmt 0 view .LVU90
 420 003c 5061     		str	r0, [r2, #20]
 241:Core/Src/Os.c **** 		break;
 421              		.loc 1 241 3 is_stmt 1 view .LVU91
 422 003e F1E7     		b	.L24
 423              	.L28:
 243:Core/Src/Os.c **** 			Os_Var.Os_Runtime.Os_10ms_Runtime = Os_TimeDiffLoc;
 424              		.loc 1 243 4 view .LVU92
 243:Core/Src/Os.c **** 			Os_Var.Os_Runtime.Os_10ms_Runtime = Os_TimeDiffLoc;
 425              		.loc 1 243 38 is_stmt 0 view .LVU93
 426 0040 034A     		ldr	r2, .L34
 427 0042 9363     		str	r3, [r2, #56]
 244:Core/Src/Os.c **** 			Os_Var.Os_Tick_Runtime.Os_10ms_Tick_Runtime_Stop = OS_TimeLoc;
 428              		.loc 1 244 4 is_stmt 1 view .LVU94
 244:Core/Src/Os.c **** 			Os_Var.Os_Tick_Runtime.Os_10ms_Tick_Runtime_Stop = OS_TimeLoc;
 429              		.loc 1 244 53 is_stmt 0 view .LVU95
 430 0044 D061     		str	r0, [r2, #28]
 245:Core/Src/Os.c **** 		break;
 431              		.loc 1 245 3 is_stmt 1 view .LVU96
 432 0046 EDE7     		b	.L24
 433              	.L29:
 247:Core/Src/Os.c **** 			Os_Var.Os_Runtime.Os_100ms_Runtime = Os_TimeDiffLoc;
 434              		.loc 1 247 4 view .LVU97
 247:Core/Src/Os.c **** 			Os_Var.Os_Runtime.Os_100ms_Runtime = Os_TimeDiffLoc;
 435              		.loc 1 247 39 is_stmt 0 view .LVU98
 436 0048 014A     		ldr	r2, .L34
 437 004a D363     		str	r3, [r2, #60]
 248:Core/Src/Os.c **** 			Os_Var.Os_Tick_Runtime.Os_100ms_Tick_Runtime_Stop = OS_TimeLoc;
 438              		.loc 1 248 4 is_stmt 1 view .LVU99
 248:Core/Src/Os.c **** 			Os_Var.Os_Tick_Runtime.Os_100ms_Tick_Runtime_Stop = OS_TimeLoc;
 439              		.loc 1 248 54 is_stmt 0 view .LVU100
 440 004c 5062     		str	r0, [r2, #36]
 249:Core/Src/Os.c **** 		break;
 441              		.loc 1 249 3 is_stmt 1 view .LVU101
 252:Core/Src/Os.c **** 	return;
 442              		.loc 1 252 2 view .LVU102
 443 004e E9E7     		b	.L24
ARM GAS  C:\Users\jisu8\AppData\Local\Temp\ccfxYGlm.s 			page 14


 444              	.L35:
 445              		.align	2
 446              	.L34:
 447 0050 00000000 		.word	.LANCHOR3
 448              		.cfi_endproc
 449              	.LFE52:
 451              		.section	.text.Os_Calc_Period,"ax",%progbits
 452              		.align	1
 453              		.syntax unified
 454              		.code	16
 455              		.thumb_func
 457              	Os_Calc_Period:
 458              	.LVL26:
 459              	.LFB50:
 149:Core/Src/Os.c **** {
 460              		.loc 1 149 1 view -0
 461              		.cfi_startproc
 462              		@ args = 0, pretend = 0, frame = 0
 463              		@ frame_needed = 0, uses_anonymous_args = 0
 149:Core/Src/Os.c **** {
 464              		.loc 1 149 1 is_stmt 0 view .LVU104
 465 0000 10B5     		push	{r4, lr}
 466              	.LCFI5:
 467              		.cfi_def_cfa_offset 8
 468              		.cfi_offset 4, -8
 469              		.cfi_offset 14, -4
 470 0002 0400     		movs	r4, r0
 150:Core/Src/Os.c **** 	uint32 OS_TimeLoc=0;
 471              		.loc 1 150 2 is_stmt 1 view .LVU105
 472              	.LVL27:
 151:Core/Src/Os.c **** 	uint32 OS_TimeOldLoc=0;
 473              		.loc 1 151 2 view .LVU106
 152:Core/Src/Os.c **** 	uint32 Os_TimeDiffLoc=0;
 474              		.loc 1 152 2 view .LVU107
 154:Core/Src/Os.c **** 	OS_TimeLoc = Os_Get_Tick_100us();
 475              		.loc 1 154 2 view .LVU108
 154:Core/Src/Os.c **** 	OS_TimeLoc = Os_Get_Tick_100us();
 476              		.loc 1 154 15 is_stmt 0 view .LVU109
 477 0004 FFF7FEFF 		bl	Os_Get_Tick_100us
 478              	.LVL28:
 156:Core/Src/Os.c **** 	switch(idx)
 479              		.loc 1 156 2 is_stmt 1 view .LVU110
 480 0008 022C     		cmp	r4, #2
 481 000a 0FD0     		beq	.L37
 482 000c 032C     		cmp	r4, #3
 483 000e 10D0     		beq	.L38
 484 0010 012C     		cmp	r4, #1
 485 0012 08D0     		beq	.L44
 486 0014 0023     		movs	r3, #0
 487              	.LVL29:
 488              	.L39:
 169:Core/Src/Os.c **** 	Os_TimeDiffLoc = OS_TimeLoc - OS_TimeOldLoc;
 489              		.loc 1 169 2 view .LVU111
 169:Core/Src/Os.c **** 	Os_TimeDiffLoc = OS_TimeLoc - OS_TimeOldLoc;
 490              		.loc 1 169 17 is_stmt 0 view .LVU112
 491 0016 C31A     		subs	r3, r0, r3
 492              	.LVL30:
ARM GAS  C:\Users\jisu8\AppData\Local\Temp\ccfxYGlm.s 			page 15


 170:Core/Src/Os.c **** 	OS_TimeOldLoc = OS_TimeLoc;
 493              		.loc 1 170 2 is_stmt 1 view .LVU113
 172:Core/Src/Os.c **** 	switch(idx)
 494              		.loc 1 172 2 view .LVU114
 495 0018 022C     		cmp	r4, #2
 496 001a 11D0     		beq	.L40
 497 001c 032C     		cmp	r4, #3
 498 001e 13D0     		beq	.L41
 499 0020 012C     		cmp	r4, #1
 500 0022 09D0     		beq	.L45
 501              	.L36:
 189:Core/Src/Os.c **** }
 502              		.loc 1 189 1 is_stmt 0 view .LVU115
 503              		@ sp needed
 504 0024 10BD     		pop	{r4, pc}
 505              	.LVL31:
 506              	.L44:
 159:Core/Src/Os.c **** 			OS_TimeOldLoc = Os_Var.Os_Tick_Period.Os_1ms_Tick_Period;
 507              		.loc 1 159 4 is_stmt 1 view .LVU116
 159:Core/Src/Os.c **** 			OS_TimeOldLoc = Os_Var.Os_Tick_Period.Os_1ms_Tick_Period;
 508              		.loc 1 159 18 is_stmt 0 view .LVU117
 509 0026 0A4B     		ldr	r3, .L46
 510 0028 9B6A     		ldr	r3, [r3, #40]
 511              	.LVL32:
 160:Core/Src/Os.c **** 		break;
 512              		.loc 1 160 3 is_stmt 1 view .LVU118
 513 002a F4E7     		b	.L39
 514              	.LVL33:
 515              	.L37:
 162:Core/Src/Os.c **** 			OS_TimeOldLoc = Os_Var.Os_Tick_Period.Os_10ms_Tick_Period;
 516              		.loc 1 162 4 view .LVU119
 162:Core/Src/Os.c **** 			OS_TimeOldLoc = Os_Var.Os_Tick_Period.Os_10ms_Tick_Period;
 517              		.loc 1 162 18 is_stmt 0 view .LVU120
 518 002c 084B     		ldr	r3, .L46
 519 002e DB6A     		ldr	r3, [r3, #44]
 520              	.LVL34:
 163:Core/Src/Os.c **** 		break;
 521              		.loc 1 163 3 is_stmt 1 view .LVU121
 522 0030 F1E7     		b	.L39
 523              	.LVL35:
 524              	.L38:
 165:Core/Src/Os.c **** 			OS_TimeOldLoc = Os_Var.Os_Tick_Period.Os_100ms_Tick_Period;
 525              		.loc 1 165 4 view .LVU122
 165:Core/Src/Os.c **** 			OS_TimeOldLoc = Os_Var.Os_Tick_Period.Os_100ms_Tick_Period;
 526              		.loc 1 165 18 is_stmt 0 view .LVU123
 527 0032 074B     		ldr	r3, .L46
 528 0034 1B6B     		ldr	r3, [r3, #48]
 529              	.LVL36:
 166:Core/Src/Os.c **** 		break;
 530              		.loc 1 166 3 is_stmt 1 view .LVU124
 531 0036 EEE7     		b	.L39
 532              	.LVL37:
 533              	.L45:
 175:Core/Src/Os.c **** 			Os_Var.Os_Period.Os_1ms_Period = Os_TimeDiffLoc;
 534              		.loc 1 175 4 view .LVU125
 175:Core/Src/Os.c **** 			Os_Var.Os_Period.Os_1ms_Period = Os_TimeDiffLoc;
 535              		.loc 1 175 35 is_stmt 0 view .LVU126
ARM GAS  C:\Users\jisu8\AppData\Local\Temp\ccfxYGlm.s 			page 16


 536 0038 054A     		ldr	r2, .L46
 537 003a 1364     		str	r3, [r2, #64]
 176:Core/Src/Os.c **** 			Os_Var.Os_Tick_Period.Os_1ms_Tick_Period = OS_TimeOldLoc;
 538              		.loc 1 176 4 is_stmt 1 view .LVU127
 176:Core/Src/Os.c **** 			Os_Var.Os_Tick_Period.Os_1ms_Tick_Period = OS_TimeOldLoc;
 539              		.loc 1 176 45 is_stmt 0 view .LVU128
 540 003c 9062     		str	r0, [r2, #40]
 177:Core/Src/Os.c **** 		break;
 541              		.loc 1 177 3 is_stmt 1 view .LVU129
 542 003e F1E7     		b	.L36
 543              	.L40:
 179:Core/Src/Os.c **** 			Os_Var.Os_Period.Os_10ms_Period = Os_TimeDiffLoc;
 544              		.loc 1 179 4 view .LVU130
 179:Core/Src/Os.c **** 			Os_Var.Os_Period.Os_10ms_Period = Os_TimeDiffLoc;
 545              		.loc 1 179 36 is_stmt 0 view .LVU131
 546 0040 034A     		ldr	r2, .L46
 547 0042 5364     		str	r3, [r2, #68]
 180:Core/Src/Os.c **** 			Os_Var.Os_Tick_Period.Os_10ms_Tick_Period = OS_TimeOldLoc;
 548              		.loc 1 180 4 is_stmt 1 view .LVU132
 180:Core/Src/Os.c **** 			Os_Var.Os_Tick_Period.Os_10ms_Tick_Period = OS_TimeOldLoc;
 549              		.loc 1 180 46 is_stmt 0 view .LVU133
 550 0044 D062     		str	r0, [r2, #44]
 181:Core/Src/Os.c **** 		break;
 551              		.loc 1 181 3 is_stmt 1 view .LVU134
 552 0046 EDE7     		b	.L36
 553              	.L41:
 183:Core/Src/Os.c **** 			Os_Var.Os_Period.Os_100ms_Period = Os_TimeDiffLoc;
 554              		.loc 1 183 4 view .LVU135
 183:Core/Src/Os.c **** 			Os_Var.Os_Period.Os_100ms_Period = Os_TimeDiffLoc;
 555              		.loc 1 183 37 is_stmt 0 view .LVU136
 556 0048 014A     		ldr	r2, .L46
 557 004a 9364     		str	r3, [r2, #72]
 184:Core/Src/Os.c **** 			Os_Var.Os_Tick_Period.Os_100ms_Tick_Period = OS_TimeOldLoc;
 558              		.loc 1 184 4 is_stmt 1 view .LVU137
 184:Core/Src/Os.c **** 			Os_Var.Os_Tick_Period.Os_100ms_Tick_Period = OS_TimeOldLoc;
 559              		.loc 1 184 47 is_stmt 0 view .LVU138
 560 004c 1063     		str	r0, [r2, #48]
 185:Core/Src/Os.c **** 		break;
 561              		.loc 1 185 3 is_stmt 1 view .LVU139
 188:Core/Src/Os.c **** 	return;
 562              		.loc 1 188 2 view .LVU140
 563 004e E9E7     		b	.L36
 564              	.L47:
 565              		.align	2
 566              	.L46:
 567 0050 00000000 		.word	.LANCHOR3
 568              		.cfi_endproc
 569              	.LFE50:
 571              		.section	.text.Os_Handler,"ax",%progbits
 572              		.align	1
 573              		.global	Os_Handler
 574              		.syntax unified
 575              		.code	16
 576              		.thumb_func
 578              	Os_Handler:
 579              	.LFB46:
  77:Core/Src/Os.c **** {
ARM GAS  C:\Users\jisu8\AppData\Local\Temp\ccfxYGlm.s 			page 17


 580              		.loc 1 77 1 view -0
 581              		.cfi_startproc
 582              		@ args = 0, pretend = 0, frame = 0
 583              		@ frame_needed = 0, uses_anonymous_args = 0
 584 0000 10B5     		push	{r4, lr}
 585              	.LCFI6:
 586              		.cfi_def_cfa_offset 8
 587              		.cfi_offset 4, -8
 588              		.cfi_offset 14, -4
  78:Core/Src/Os.c **** 	void(*fp)(void);
 589              		.loc 1 78 2 view .LVU142
  79:Core/Src/Os.c ****     if(Os_Var.Os_Task_Flag.Os_100ms_Flag == 1)
 590              		.loc 1 79 5 view .LVU143
  79:Core/Src/Os.c ****     if(Os_Var.Os_Task_Flag.Os_100ms_Flag == 1)
 591              		.loc 1 79 27 is_stmt 0 view .LVU144
 592 0002 104A     		ldr	r2, .L52
 593 0004 5623     		movs	r3, #86
 594 0006 D35C     		ldrb	r3, [r2, r3]
  79:Core/Src/Os.c ****     if(Os_Var.Os_Task_Flag.Os_100ms_Flag == 1)
 595              		.loc 1 79 7 view .LVU145
 596 0008 012B     		cmp	r3, #1
 597 000a 09D0     		beq	.L51
  91:Core/Src/Os.c **** 		Os_Calc_Runtime_Start(OS_TASK_INDEX_BG);
 598              		.loc 1 91 3 is_stmt 1 view .LVU146
 599 000c 0420     		movs	r0, #4
 600 000e FFF7FEFF 		bl	Os_Calc_Runtime_Start
 601              	.LVL38:
  92:Core/Src/Os.c **** 		(void)Os_Background_Task();
 602              		.loc 1 92 3 view .LVU147
  93:Core/Src/Os.c **** 		Os_Calc_Runtime_Stop(OS_TASK_INDEX_BG);
 603              		.loc 1 93 3 view .LVU148
 604 0012 0420     		movs	r0, #4
 605 0014 FFF7FEFF 		bl	Os_Calc_Runtime_Stop
 606              	.LVL39:
  94:Core/Src/Os.c **** 		Os_Calc_Period(OS_TASK_INDEX_BG);
 607              		.loc 1 94 3 view .LVU149
 608 0018 0420     		movs	r0, #4
 609 001a FFF7FEFF 		bl	Os_Calc_Period
 610              	.LVL40:
  97:Core/Src/Os.c ****     return;
 611              		.loc 1 97 5 view .LVU150
 612              	.L48:
  98:Core/Src/Os.c **** }
 613              		.loc 1 98 1 is_stmt 0 view .LVU151
 614              		@ sp needed
 615 001e 10BD     		pop	{r4, pc}
 616              	.L51:
  81:Core/Src/Os.c **** 		fp = Os_100ms_Task;
 617              		.loc 1 81 3 is_stmt 1 view .LVU152
  82:Core/Src/Os.c **** 		Os_Var.Os_Task_Add.Os_100ms_Address = fp;
 618              		.loc 1 82 3 view .LVU153
  82:Core/Src/Os.c **** 		Os_Var.Os_Task_Add.Os_100ms_Address = fp;
 619              		.loc 1 82 39 is_stmt 0 view .LVU154
 620 0020 1300     		movs	r3, r2
 621 0022 094A     		ldr	r2, .L52+4
 622 0024 1A66     		str	r2, [r3, #96]
  83:Core/Src/Os.c **** 		Os_Var.Os_Task_Flag.Os_100ms_Flag = 0;
ARM GAS  C:\Users\jisu8\AppData\Local\Temp\ccfxYGlm.s 			page 18


 623              		.loc 1 83 3 is_stmt 1 view .LVU155
  83:Core/Src/Os.c **** 		Os_Var.Os_Task_Flag.Os_100ms_Flag = 0;
 624              		.loc 1 83 37 is_stmt 0 view .LVU156
 625 0026 5622     		movs	r2, #86
 626 0028 0021     		movs	r1, #0
 627 002a 9954     		strb	r1, [r3, r2]
  84:Core/Src/Os.c **** 		Os_Calc_Runtime_Start(OS_TASK_INDEX_100MS);
 628              		.loc 1 84 3 is_stmt 1 view .LVU157
 629 002c 0320     		movs	r0, #3
 630 002e FFF7FEFF 		bl	Os_Calc_Runtime_Start
 631              	.LVL41:
  85:Core/Src/Os.c **** 		(void)Os_100ms_Task();
 632              		.loc 1 85 3 view .LVU158
 633 0032 FFF7FEFF 		bl	Os_100ms_Task
 634              	.LVL42:
  86:Core/Src/Os.c **** 		Os_Calc_Runtime_Stop(OS_TASK_INDEX_100MS);
 635              		.loc 1 86 3 view .LVU159
 636 0036 0320     		movs	r0, #3
 637 0038 FFF7FEFF 		bl	Os_Calc_Runtime_Stop
 638              	.LVL43:
  87:Core/Src/Os.c **** 		Os_Calc_Period(OS_TASK_INDEX_100MS);
 639              		.loc 1 87 3 view .LVU160
 640 003c 0320     		movs	r0, #3
 641 003e FFF7FEFF 		bl	Os_Calc_Period
 642              	.LVL44:
 643 0042 ECE7     		b	.L48
 644              	.L53:
 645              		.align	2
 646              	.L52:
 647 0044 00000000 		.word	.LANCHOR3
 648 0048 00000000 		.word	Os_100ms_Task
 649              		.cfi_endproc
 650              	.LFE46:
 652              		.global	__aeabi_uidivmod
 653              		.section	.text.Os_Handler_1ms,"ax",%progbits
 654              		.align	1
 655              		.global	Os_Handler_1ms
 656              		.syntax unified
 657              		.code	16
 658              		.thumb_func
 660              	Os_Handler_1ms:
 661              	.LFB47:
 101:Core/Src/Os.c **** {
 662              		.loc 1 101 1 view -0
 663              		.cfi_startproc
 664              		@ args = 0, pretend = 0, frame = 0
 665              		@ frame_needed = 0, uses_anonymous_args = 0
 666 0000 10B5     		push	{r4, lr}
 667              	.LCFI7:
 668              		.cfi_def_cfa_offset 8
 669              		.cfi_offset 4, -8
 670              		.cfi_offset 14, -4
 102:Core/Src/Os.c **** 	if(Os_Var.Os_Counter.Os_1ms_Counter % 1 == 0)
 671              		.loc 1 102 2 view .LVU162
 104:Core/Src/Os.c **** 		Os_Var.Os_Counter.Os_1ms_Counter++;
 672              		.loc 1 104 3 view .LVU163
 104:Core/Src/Os.c **** 		Os_Var.Os_Counter.Os_1ms_Counter++;
ARM GAS  C:\Users\jisu8\AppData\Local\Temp\ccfxYGlm.s 			page 19


 673              		.loc 1 104 20 is_stmt 0 view .LVU164
 674 0002 114B     		ldr	r3, .L56
 104:Core/Src/Os.c **** 		Os_Var.Os_Counter.Os_1ms_Counter++;
 675              		.loc 1 104 35 view .LVU165
 676 0004 5A68     		ldr	r2, [r3, #4]
 677 0006 501C     		adds	r0, r2, #1
 678 0008 5860     		str	r0, [r3, #4]
 105:Core/Src/Os.c **** 		Os_Var.Os_Task_Flag.Os_1ms_Flag = 1;
 679              		.loc 1 105 3 is_stmt 1 view .LVU166
 105:Core/Src/Os.c **** 		Os_Var.Os_Task_Flag.Os_1ms_Flag = 1;
 680              		.loc 1 105 35 is_stmt 0 view .LVU167
 681 000a 5422     		movs	r2, #84
 682 000c 0121     		movs	r1, #1
 683 000e 9954     		strb	r1, [r3, r2]
 108:Core/Src/Os.c **** 	if(Os_Var.Os_Counter.Os_1ms_Counter % 100 == 0)
 684              		.loc 1 108 2 is_stmt 1 view .LVU168
 108:Core/Src/Os.c **** 	if(Os_Var.Os_Counter.Os_1ms_Counter % 100 == 0)
 685              		.loc 1 108 38 is_stmt 0 view .LVU169
 686 0010 6331     		adds	r1, r1, #99
 687 0012 FFF7FEFF 		bl	__aeabi_uidivmod
 688              	.LVL45:
 108:Core/Src/Os.c **** 	if(Os_Var.Os_Counter.Os_1ms_Counter % 100 == 0)
 689              		.loc 1 108 4 view .LVU170
 690 0016 0029     		cmp	r1, #0
 691 0018 06D1     		bne	.L55
 110:Core/Src/Os.c **** 		Os_Var.Os_Counter.Os_100ms_Counter++;
 692              		.loc 1 110 3 is_stmt 1 view .LVU171
 110:Core/Src/Os.c **** 		Os_Var.Os_Counter.Os_100ms_Counter++;
 693              		.loc 1 110 20 is_stmt 0 view .LVU172
 694 001a 0B4B     		ldr	r3, .L56
 110:Core/Src/Os.c **** 		Os_Var.Os_Counter.Os_100ms_Counter++;
 695              		.loc 1 110 37 view .LVU173
 696 001c DA68     		ldr	r2, [r3, #12]
 697 001e 0132     		adds	r2, r2, #1
 698 0020 DA60     		str	r2, [r3, #12]
 111:Core/Src/Os.c **** 		Os_Var.Os_Task_Flag.Os_100ms_Flag = 1;
 699              		.loc 1 111 3 is_stmt 1 view .LVU174
 111:Core/Src/Os.c **** 		Os_Var.Os_Task_Flag.Os_100ms_Flag = 1;
 700              		.loc 1 111 37 is_stmt 0 view .LVU175
 701 0022 5622     		movs	r2, #86
 702 0024 0131     		adds	r1, r1, #1
 703 0026 9954     		strb	r1, [r3, r2]
 704              	.L55:
 113:Core/Src/Os.c **** 	void(*fp)(void);
 705              		.loc 1 113 2 is_stmt 1 view .LVU176
 114:Core/Src/Os.c **** 	if(Os_Var.Os_Task_Flag.Os_1ms_Flag == 1)
 706              		.loc 1 114 2 view .LVU177
 116:Core/Src/Os.c **** 		fp = Os_1ms_Task;
 707              		.loc 1 116 3 view .LVU178
 117:Core/Src/Os.c **** 		Os_Var.Os_Task_Add.Os_1ms_Address = fp;
 708              		.loc 1 117 3 view .LVU179
 117:Core/Src/Os.c **** 		Os_Var.Os_Task_Add.Os_1ms_Address = fp;
 709              		.loc 1 117 37 is_stmt 0 view .LVU180
 710 0028 074B     		ldr	r3, .L56
 711 002a 084A     		ldr	r2, .L56+4
 712 002c 9A65     		str	r2, [r3, #88]
 118:Core/Src/Os.c **** 		Os_Var.Os_Task_Flag.Os_1ms_Flag = 0;
ARM GAS  C:\Users\jisu8\AppData\Local\Temp\ccfxYGlm.s 			page 20


 713              		.loc 1 118 3 is_stmt 1 view .LVU181
 118:Core/Src/Os.c **** 		Os_Var.Os_Task_Flag.Os_1ms_Flag = 0;
 714              		.loc 1 118 35 is_stmt 0 view .LVU182
 715 002e 5422     		movs	r2, #84
 716 0030 0021     		movs	r1, #0
 717 0032 9954     		strb	r1, [r3, r2]
 119:Core/Src/Os.c **** 		Os_Calc_Runtime_Start(OS_TASK_INDEX_1MS);
 718              		.loc 1 119 3 is_stmt 1 view .LVU183
 719 0034 0120     		movs	r0, #1
 720 0036 FFF7FEFF 		bl	Os_Calc_Runtime_Start
 721              	.LVL46:
 120:Core/Src/Os.c **** 		(void)Os_1ms_Task();
 722              		.loc 1 120 3 view .LVU184
 121:Core/Src/Os.c **** 		Os_Calc_Runtime_Stop(OS_TASK_INDEX_1MS);
 723              		.loc 1 121 3 view .LVU185
 724 003a 0120     		movs	r0, #1
 725 003c FFF7FEFF 		bl	Os_Calc_Runtime_Stop
 726              	.LVL47:
 122:Core/Src/Os.c **** 		Os_Calc_Period(OS_TASK_INDEX_1MS);
 727              		.loc 1 122 3 view .LVU186
 728 0040 0120     		movs	r0, #1
 729 0042 FFF7FEFF 		bl	Os_Calc_Period
 730              	.LVL48:
 124:Core/Src/Os.c **** }
 731              		.loc 1 124 1 is_stmt 0 view .LVU187
 732              		@ sp needed
 733 0046 10BD     		pop	{r4, pc}
 734              	.L57:
 735              		.align	2
 736              	.L56:
 737 0048 00000000 		.word	.LANCHOR3
 738 004c 00000000 		.word	Os_1ms_Task
 739              		.cfi_endproc
 740              	.LFE47:
 742              		.section	.text.Os_Handler_10ms,"ax",%progbits
 743              		.align	1
 744              		.global	Os_Handler_10ms
 745              		.syntax unified
 746              		.code	16
 747              		.thumb_func
 749              	Os_Handler_10ms:
 750              	.LFB48:
 127:Core/Src/Os.c **** {
 751              		.loc 1 127 1 is_stmt 1 view -0
 752              		.cfi_startproc
 753              		@ args = 0, pretend = 0, frame = 0
 754              		@ frame_needed = 0, uses_anonymous_args = 0
 755 0000 10B5     		push	{r4, lr}
 756              	.LCFI8:
 757              		.cfi_def_cfa_offset 8
 758              		.cfi_offset 4, -8
 759              		.cfi_offset 14, -4
 128:Core/Src/Os.c **** 	Os_Var.Os_Counter.Os_10ms_Counter++;
 760              		.loc 1 128 2 view .LVU189
 128:Core/Src/Os.c **** 	Os_Var.Os_Counter.Os_10ms_Counter++;
 761              		.loc 1 128 19 is_stmt 0 view .LVU190
 762 0002 0B4B     		ldr	r3, .L59
ARM GAS  C:\Users\jisu8\AppData\Local\Temp\ccfxYGlm.s 			page 21


 128:Core/Src/Os.c **** 	Os_Var.Os_Counter.Os_10ms_Counter++;
 763              		.loc 1 128 35 view .LVU191
 764 0004 9A68     		ldr	r2, [r3, #8]
 765 0006 0132     		adds	r2, r2, #1
 766 0008 9A60     		str	r2, [r3, #8]
 129:Core/Src/Os.c **** 	Os_Var.Os_Task_Flag.Os_10ms_Flag = 1;
 767              		.loc 1 129 2 is_stmt 1 view .LVU192
 129:Core/Src/Os.c **** 	Os_Var.Os_Task_Flag.Os_10ms_Flag = 1;
 768              		.loc 1 129 35 is_stmt 0 view .LVU193
 769 000a 5522     		movs	r2, #85
 770 000c 0121     		movs	r1, #1
 771 000e 9954     		strb	r1, [r3, r2]
 130:Core/Src/Os.c **** 	void(*fp)(void);
 772              		.loc 1 130 2 is_stmt 1 view .LVU194
 131:Core/Src/Os.c **** 	if(Os_Var.Os_Task_Flag.Os_10ms_Flag == 1)
 773              		.loc 1 131 2 view .LVU195
 133:Core/Src/Os.c **** 		fp = Os_10ms_Task;
 774              		.loc 1 133 3 view .LVU196
 134:Core/Src/Os.c **** 		Os_Var.Os_Task_Add.Os_10ms_Address = fp;
 775              		.loc 1 134 3 view .LVU197
 134:Core/Src/Os.c **** 		Os_Var.Os_Task_Add.Os_10ms_Address = fp;
 776              		.loc 1 134 38 is_stmt 0 view .LVU198
 777 0010 0849     		ldr	r1, .L59+4
 778 0012 D965     		str	r1, [r3, #92]
 135:Core/Src/Os.c **** 		Os_Var.Os_Task_Flag.Os_10ms_Flag = 0;
 779              		.loc 1 135 3 is_stmt 1 view .LVU199
 135:Core/Src/Os.c **** 		Os_Var.Os_Task_Flag.Os_10ms_Flag = 0;
 780              		.loc 1 135 36 is_stmt 0 view .LVU200
 781 0014 0021     		movs	r1, #0
 782 0016 9954     		strb	r1, [r3, r2]
 136:Core/Src/Os.c **** 		Os_Calc_Runtime_Start(OS_TASK_INDEX_10MS);
 783              		.loc 1 136 3 is_stmt 1 view .LVU201
 784 0018 0220     		movs	r0, #2
 785 001a FFF7FEFF 		bl	Os_Calc_Runtime_Start
 786              	.LVL49:
 137:Core/Src/Os.c **** 		(void)Os_10ms_Task();
 787              		.loc 1 137 3 view .LVU202
 788 001e FFF7FEFF 		bl	Os_10ms_Task
 789              	.LVL50:
 138:Core/Src/Os.c **** 		Os_Calc_Runtime_Stop(OS_TASK_INDEX_10MS);
 790              		.loc 1 138 3 view .LVU203
 791 0022 0220     		movs	r0, #2
 792 0024 FFF7FEFF 		bl	Os_Calc_Runtime_Stop
 793              	.LVL51:
 139:Core/Src/Os.c **** 		Os_Calc_Period(OS_TASK_INDEX_10MS);
 794              		.loc 1 139 3 view .LVU204
 795 0028 0220     		movs	r0, #2
 796 002a FFF7FEFF 		bl	Os_Calc_Period
 797              	.LVL52:
 141:Core/Src/Os.c **** }
 798              		.loc 1 141 1 is_stmt 0 view .LVU205
 799              		@ sp needed
 800 002e 10BD     		pop	{r4, pc}
 801              	.L60:
 802              		.align	2
 803              	.L59:
 804 0030 00000000 		.word	.LANCHOR3
ARM GAS  C:\Users\jisu8\AppData\Local\Temp\ccfxYGlm.s 			page 22


 805 0034 00000000 		.word	Os_10ms_Task
 806              		.cfi_endproc
 807              	.LFE48:
 809              		.global	EEPROM_Write_cntReq
 810              		.global	EEPROM_Write_Req
 811              		.global	switch_mode_old
 812              		.global	Os_Var
 813              		.section	.bss.EEPROM_Write_Req,"aw",%nobits
 814              		.set	.LANCHOR1,. + 0
 817              	EEPROM_Write_Req:
 818 0000 00       		.space	1
 819              		.section	.bss.EEPROM_Write_cntReq,"aw",%nobits
 820              		.set	.LANCHOR2,. + 0
 823              	EEPROM_Write_cntReq:
 824 0000 00       		.space	1
 825              		.section	.bss.Os_Var,"aw",%nobits
 826              		.align	2
 827              		.set	.LANCHOR3,. + 0
 830              	Os_Var:
 831 0000 00000000 		.space	100
 831      00000000 
 831      00000000 
 831      00000000 
 831      00000000 
 832              		.section	.bss.switch_mode_old,"aw",%nobits
 833              		.set	.LANCHOR0,. + 0
 836              	switch_mode_old:
 837 0000 00       		.space	1
 838              		.text
 839              	.Letext0:
 840              		.file 2 "Core/Inc/vardef.h"
 841              		.file 3 "Core/Inc/os.h"
 842              		.file 4 "Core/Inc/switch.h"
 843              		.file 5 "Core/Inc/led.h"
 844              		.file 6 "Core/Inc/oled.h"
 845              		.file 7 "Core/Inc/eeprom.h"
 846              		.file 8 "Core/Inc/pwm.h"
 847              		.file 9 "Core/Inc/temp.h"
 848              		.file 10 "Core/Inc/co2.h"
ARM GAS  C:\Users\jisu8\AppData\Local\Temp\ccfxYGlm.s 			page 23

