ARM GAS  C:\Users\jisu8\AppData\Local\Temp\ccfVxx9F.s 			page 1


   1              		.cpu cortex-m0
   2              		.arch armv6s-m
   3              		.fpu softvfp
   4              		.eabi_attribute 20, 1
   5              		.eabi_attribute 21, 1
   6              		.eabi_attribute 23, 3
   7              		.eabi_attribute 24, 1
   8              		.eabi_attribute 25, 1
   9              		.eabi_attribute 26, 1
  10              		.eabi_attribute 30, 1
  11              		.eabi_attribute 34, 0
  12              		.eabi_attribute 18, 4
  13              		.file	"pwm.c"
  14              		.text
  15              	.Ltext0:
  16              		.cfi_sections	.debug_frame
  17              		.section	.text.Pwm_SubMode_Target_Set,"ax",%progbits
  18              		.align	1
  19              		.syntax unified
  20              		.code	16
  21              		.thumb_func
  23              	Pwm_SubMode_Target_Set:
  24              	.LFB41:
  25              		.file 1 "Core/Src/pwm.c"
   1:Core/Src/pwm.c **** #include "pwm.h"
   2:Core/Src/pwm.c **** 
   3:Core/Src/pwm.c **** static void Pwm_SubMode_Target_Set(void);
   4:Core/Src/pwm.c **** static void Pwm_Control(void);
   5:Core/Src/pwm.c **** static void Pwm_Peltier_Set_Duty(uint16 duty);
   6:Core/Src/pwm.c **** static void Pwm_Heater_Set_Duty(uint16 duty);
   7:Core/Src/pwm.c **** static void Pwm_Servo_Set_Duty(uint16 duty);
   8:Core/Src/pwm.c **** static void Pwm_Fan_Set_Duty(uint16 duty);
   9:Core/Src/pwm.c **** 
  10:Core/Src/pwm.c **** sint16 Pwm_Duty_Peltier = 0;
  11:Core/Src/pwm.c **** sint16 Pwm_Duty_Heater = 0;
  12:Core/Src/pwm.c **** sint16 Pwm_Duty_Servo = 0;
  13:Core/Src/pwm.c **** sint16 Pwm_Duty_Fan = 0;
  14:Core/Src/pwm.c **** 
  15:Core/Src/pwm.c **** uint8 Pwm_Servo_status = 0;
  16:Core/Src/pwm.c **** 
  17:Core/Src/pwm.c **** uint8 Pwm_Led_Mode = 0;
  18:Core/Src/pwm.c **** 
  19:Core/Src/pwm.c **** sint16 Target_Run_Temp;
  20:Core/Src/pwm.c **** sint32 Target_Run_Time;
  21:Core/Src/pwm.c **** sint16 Target_Idle_Temp;
  22:Core/Src/pwm.c **** uint8 first_target_flag = 0;
  23:Core/Src/pwm.c **** 
  24:Core/Src/pwm.c **** extern uint8 switch4_mode;
  25:Core/Src/pwm.c **** uint16 Servo_timer;
  26:Core/Src/pwm.c **** void Pwm_Output(void)
  27:Core/Src/pwm.c **** {
  28:Core/Src/pwm.c ****     if(((switch_mode == SWITCH_MODE_RUN)&&(cup_in == 1))||
  29:Core/Src/pwm.c ****        (switch_mode == SWITCH_MODE_RUN)&&((switch_submode == SWITCH_SUB_MODE_18)||(switch_submode =
  30:Core/Src/pwm.c ****     {
  31:Core/Src/pwm.c ****         if(PWM_SUBMODE_TARGET_ON == first_target_flag)
  32:Core/Src/pwm.c ****         {
  33:Core/Src/pwm.c ****             Pwm_SubMode_Target_Set();
ARM GAS  C:\Users\jisu8\AppData\Local\Temp\ccfVxx9F.s 			page 2


  34:Core/Src/pwm.c ****         }
  35:Core/Src/pwm.c ****         Pwm_Control();
  36:Core/Src/pwm.c ****     }
  37:Core/Src/pwm.c ****     else
  38:Core/Src/pwm.c ****     {
  39:Core/Src/pwm.c ****         first_target_flag = PWM_SUBMODE_TARGET_ON;
  40:Core/Src/pwm.c ****         Target_Run_Temp = 0;
  41:Core/Src/pwm.c ****         Target_Run_Time = 0;
  42:Core/Src/pwm.c ****         Target_Idle_Temp = 0;
  43:Core/Src/pwm.c ****         Pwm_Duty_Peltier = 0;
  44:Core/Src/pwm.c ****         Pwm_Duty_Heater = 0;
  45:Core/Src/pwm.c ****         Pwm_Duty_Fan = 0;
  46:Core/Src/pwm.c ****         Pwm_Peltier_Set_Duty(0);
  47:Core/Src/pwm.c ****         Pwm_Heater_Set_Duty(0);
  48:Core/Src/pwm.c ****         Pwm_Fan_Set_Duty(0);        
  49:Core/Src/pwm.c ****         Pwm_Led_Mode = PWM_LED_MODE_NONE;
  50:Core/Src/pwm.c ****     }
  51:Core/Src/pwm.c **** 
  52:Core/Src/pwm.c ****     if((switch4_mode == 1)&&(Pwm_Servo_status == PWM_SERVO_STATUS_RUN))
  53:Core/Src/pwm.c ****     {
  54:Core/Src/pwm.c ****         Pwm_Duty_Servo = PWM_SERVO_180_DEGREE;
  55:Core/Src/pwm.c ****         Servo_timer++;
  56:Core/Src/pwm.c ****         if(Servo_timer>=20)
  57:Core/Src/pwm.c ****         {
  58:Core/Src/pwm.c ****             Servo_timer = 20;
  59:Core/Src/pwm.c ****             Pwm_Servo_status = PWM_SERVO_STATUS_STOP;
  60:Core/Src/pwm.c ****             Pwm_Duty_Servo = PWM_SERVO_OFF;
  61:Core/Src/pwm.c ****         }
  62:Core/Src/pwm.c ****     }
  63:Core/Src/pwm.c ****     if((switch4_mode == 0)&&(Pwm_Servo_status == PWM_SERVO_STATUS_RUN))
  64:Core/Src/pwm.c ****     {
  65:Core/Src/pwm.c ****         Pwm_Duty_Servo = PWM_SERVO_0_DEGREE;
  66:Core/Src/pwm.c ****         Servo_timer++;
  67:Core/Src/pwm.c ****         if(Servo_timer>=20)
  68:Core/Src/pwm.c ****         {
  69:Core/Src/pwm.c ****             Servo_timer = 20;
  70:Core/Src/pwm.c ****             Pwm_Servo_status = PWM_SERVO_STATUS_STOP;
  71:Core/Src/pwm.c ****             Pwm_Duty_Servo = PWM_SERVO_OFF;
  72:Core/Src/pwm.c ****         }
  73:Core/Src/pwm.c ****     }
  74:Core/Src/pwm.c **** 
  75:Core/Src/pwm.c ****     Pwm_Servo_Set_Duty(Pwm_Duty_Servo);
  76:Core/Src/pwm.c ****     return;
  77:Core/Src/pwm.c **** }
  78:Core/Src/pwm.c **** static void Pwm_SubMode_Target_Set(void)
  79:Core/Src/pwm.c **** {
  26              		.loc 1 79 1 view -0
  27              		.cfi_startproc
  28              		@ args = 0, pretend = 0, frame = 0
  29              		@ frame_needed = 0, uses_anonymous_args = 0
  30              		@ link register save eliminated.
  80:Core/Src/pwm.c ****     switch(switch_submode)
  31              		.loc 1 80 5 view .LVU1
  32 0000 684B     		ldr	r3, .L24
  33 0002 1A78     		ldrb	r2, [r3]
  34 0004 132A     		cmp	r2, #19
  35 0006 00D9     		bls	.LCB8
ARM GAS  C:\Users\jisu8\AppData\Local\Temp\ccfVxx9F.s 			page 3


  36 0008 C3E0     		b	.L2	@long jump
  37              	.LCB8:
  38 000a 9300     		lsls	r3, r2, #2
  39 000c 664A     		ldr	r2, .L24+4
  40 000e D358     		ldr	r3, [r2, r3]
  41 0010 9F46     		mov	pc, r3
  42              		.section	.rodata.Pwm_SubMode_Target_Set,"a",%progbits
  43              		.align	2
  44              	.L4:
  45 0000 92010000 		.word	.L2
  46 0004 12000000 		.word	.L22
  47 0008 26000000 		.word	.L21
  48 000c 3A000000 		.word	.L20
  49 0010 4E000000 		.word	.L19
  50 0014 60000000 		.word	.L18
  51 0018 72000000 		.word	.L17
  52 001c 86000000 		.word	.L16
  53 0020 9A000000 		.word	.L15
  54 0024 AE000000 		.word	.L14
  55 0028 C2000000 		.word	.L13
  56 002c D6000000 		.word	.L12
  57 0030 EA000000 		.word	.L11
  58 0034 FE000000 		.word	.L10
  59 0038 12010000 		.word	.L9
  60 003c 26010000 		.word	.L8
  61 0040 3A010000 		.word	.L7
  62 0044 4E010000 		.word	.L6
  63 0048 6E010000 		.word	.L5
  64 004c 80010000 		.word	.L3
  65              		.section	.text.Pwm_SubMode_Target_Set
  66              	.L22:
  81:Core/Src/pwm.c ****     {
  82:Core/Src/pwm.c ****         case SWITCH_SUB_MODE_1 :
  83:Core/Src/pwm.c ****             Target_Run_Temp = PWM_RUN_TEMP_1;
  67              		.loc 1 83 13 view .LVU2
  68              		.loc 1 83 29 is_stmt 0 view .LVU3
  69 0012 664B     		ldr	r3, .L24+8
  70 0014 5A22     		movs	r2, #90
  71 0016 1A80     		strh	r2, [r3]
  84:Core/Src/pwm.c ****             Target_Run_Time = PWM_RUN_TIME_1;
  72              		.loc 1 84 13 is_stmt 1 view .LVU4
  73              		.loc 1 84 29 is_stmt 0 view .LVU5
  74 0018 654B     		ldr	r3, .L24+12
  75 001a 664A     		ldr	r2, .L24+16
  76 001c 1A60     		str	r2, [r3]
  85:Core/Src/pwm.c ****             Target_Idle_Temp = PWM_IDLE_TEMP_1;
  77              		.loc 1 85 13 is_stmt 1 view .LVU6
  78              		.loc 1 85 30 is_stmt 0 view .LVU7
  79 001e 664B     		ldr	r3, .L24+20
  80 0020 4122     		movs	r2, #65
  81 0022 1A80     		strh	r2, [r3]
  86:Core/Src/pwm.c ****         break;
  82              		.loc 1 86 9 is_stmt 1 view .LVU8
  83              	.L1:
  87:Core/Src/pwm.c ****         case SWITCH_SUB_MODE_2 :
  88:Core/Src/pwm.c ****             Target_Run_Temp = PWM_RUN_TEMP_2;
  89:Core/Src/pwm.c ****             Target_Run_Time = PWM_RUN_TIME_2;
ARM GAS  C:\Users\jisu8\AppData\Local\Temp\ccfVxx9F.s 			page 4


  90:Core/Src/pwm.c ****             Target_Idle_Temp = PWM_IDLE_TEMP_2; 
  91:Core/Src/pwm.c ****         break;
  92:Core/Src/pwm.c ****         case SWITCH_SUB_MODE_3 :
  93:Core/Src/pwm.c ****             Target_Run_Temp = PWM_RUN_TEMP_3;
  94:Core/Src/pwm.c ****             Target_Run_Time = PWM_RUN_TIME_3;
  95:Core/Src/pwm.c ****             Target_Idle_Temp = PWM_IDLE_TEMP_3; 
  96:Core/Src/pwm.c ****         break;
  97:Core/Src/pwm.c ****         case SWITCH_SUB_MODE_4 :
  98:Core/Src/pwm.c ****             Target_Run_Temp = PWM_RUN_TEMP_4;
  99:Core/Src/pwm.c ****             Target_Run_Time = PWM_RUN_TIME_4;
 100:Core/Src/pwm.c ****             Target_Idle_Temp = PWM_IDLE_TEMP_4; 
 101:Core/Src/pwm.c ****         break;
 102:Core/Src/pwm.c ****         case SWITCH_SUB_MODE_5 :
 103:Core/Src/pwm.c ****             Target_Run_Temp = PWM_RUN_TEMP_5;
 104:Core/Src/pwm.c ****             Target_Run_Time = PWM_RUN_TIME_5;
 105:Core/Src/pwm.c ****             Target_Idle_Temp = PWM_IDLE_TEMP_5; 
 106:Core/Src/pwm.c ****         break;
 107:Core/Src/pwm.c ****         case SWITCH_SUB_MODE_6 :
 108:Core/Src/pwm.c ****             Target_Run_Temp = PWM_RUN_TEMP_6;
 109:Core/Src/pwm.c ****             Target_Run_Time = PWM_RUN_TIME_6;
 110:Core/Src/pwm.c ****             Target_Idle_Temp = PWM_IDLE_TEMP_6; 
 111:Core/Src/pwm.c ****         break;
 112:Core/Src/pwm.c ****         case SWITCH_SUB_MODE_7 :
 113:Core/Src/pwm.c ****             Target_Run_Temp = PWM_RUN_TEMP_7;
 114:Core/Src/pwm.c ****             Target_Run_Time = PWM_RUN_TIME_7;
 115:Core/Src/pwm.c ****             Target_Idle_Temp = PWM_IDLE_TEMP_7; 
 116:Core/Src/pwm.c ****         break;
 117:Core/Src/pwm.c ****         case SWITCH_SUB_MODE_8 :
 118:Core/Src/pwm.c ****             Target_Run_Temp = PWM_RUN_TEMP_8;
 119:Core/Src/pwm.c ****             Target_Run_Time = PWM_RUN_TIME_8;
 120:Core/Src/pwm.c ****             Target_Idle_Temp = PWM_IDLE_TEMP_8; 
 121:Core/Src/pwm.c ****         break;
 122:Core/Src/pwm.c ****         case SWITCH_SUB_MODE_9 :
 123:Core/Src/pwm.c ****             Target_Run_Temp = PWM_RUN_TEMP_9;
 124:Core/Src/pwm.c ****             Target_Run_Time = PWM_RUN_TIME_9;
 125:Core/Src/pwm.c ****             Target_Idle_Temp = PWM_IDLE_TEMP_9; 
 126:Core/Src/pwm.c ****         break;
 127:Core/Src/pwm.c ****         case SWITCH_SUB_MODE_10 :
 128:Core/Src/pwm.c ****             Target_Run_Temp = PWM_RUN_TEMP_10;
 129:Core/Src/pwm.c ****             Target_Run_Time = PWM_RUN_TIME_10;
 130:Core/Src/pwm.c ****             Target_Idle_Temp = PWM_IDLE_TEMP_10; 
 131:Core/Src/pwm.c ****         break;
 132:Core/Src/pwm.c ****         case SWITCH_SUB_MODE_11 :
 133:Core/Src/pwm.c ****             Target_Run_Temp = PWM_RUN_TEMP_11;
 134:Core/Src/pwm.c ****             Target_Run_Time = PWM_RUN_TIME_11;
 135:Core/Src/pwm.c ****             Target_Idle_Temp = PWM_IDLE_TEMP_11; 
 136:Core/Src/pwm.c ****         break;
 137:Core/Src/pwm.c ****         case SWITCH_SUB_MODE_12 :
 138:Core/Src/pwm.c ****             Target_Run_Temp = PWM_RUN_TEMP_12;
 139:Core/Src/pwm.c ****             Target_Run_Time = PWM_RUN_TIME_12;
 140:Core/Src/pwm.c ****             Target_Idle_Temp = PWM_IDLE_TEMP_12; 
 141:Core/Src/pwm.c ****         break;
 142:Core/Src/pwm.c ****         case SWITCH_SUB_MODE_13 :
 143:Core/Src/pwm.c ****             Target_Run_Temp = PWM_RUN_TEMP_13;
 144:Core/Src/pwm.c ****             Target_Run_Time = PWM_RUN_TIME_13;
 145:Core/Src/pwm.c ****             Target_Idle_Temp = PWM_IDLE_TEMP_13; 
 146:Core/Src/pwm.c ****         break;
ARM GAS  C:\Users\jisu8\AppData\Local\Temp\ccfVxx9F.s 			page 5


 147:Core/Src/pwm.c ****         case SWITCH_SUB_MODE_14 :
 148:Core/Src/pwm.c ****             Target_Run_Temp = PWM_RUN_TEMP_14;
 149:Core/Src/pwm.c ****             Target_Run_Time = PWM_RUN_TIME_14;
 150:Core/Src/pwm.c ****             Target_Idle_Temp = PWM_IDLE_TEMP_14; 
 151:Core/Src/pwm.c ****         break;
 152:Core/Src/pwm.c ****         case SWITCH_SUB_MODE_15 :
 153:Core/Src/pwm.c ****             Target_Run_Temp = PWM_RUN_TEMP_15;
 154:Core/Src/pwm.c ****             Target_Run_Time = PWM_RUN_TIME_15;
 155:Core/Src/pwm.c ****             Target_Idle_Temp = PWM_IDLE_TEMP_15; 
 156:Core/Src/pwm.c ****         break;
 157:Core/Src/pwm.c ****         case SWITCH_SUB_MODE_16 :
 158:Core/Src/pwm.c ****             Target_Run_Temp = PWM_RUN_TEMP_16;
 159:Core/Src/pwm.c ****             Target_Run_Time = PWM_RUN_TIME_16;
 160:Core/Src/pwm.c ****             Target_Idle_Temp = PWM_IDLE_TEMP_16; 
 161:Core/Src/pwm.c ****         break;
 162:Core/Src/pwm.c ****         case SWITCH_SUB_MODE_17 :
 163:Core/Src/pwm.c ****             Target_Run_Temp = switch_trg_temp;
 164:Core/Src/pwm.c ****             Target_Run_Time = (sint32)(switch_trg_time * 60 * 100);
 165:Core/Src/pwm.c ****             Target_Idle_Temp = switch_idle_temp; 
 166:Core/Src/pwm.c ****         break;
 167:Core/Src/pwm.c ****         case SWITCH_SUB_MODE_18 :
 168:Core/Src/pwm.c ****             Target_Run_Temp = PWM_RUN_TEMP_18;
 169:Core/Src/pwm.c ****             Target_Run_Time = PWM_RUN_TIME_18;
 170:Core/Src/pwm.c ****             Target_Idle_Temp = PWM_IDLE_TEMP_18; 
 171:Core/Src/pwm.c ****         break;
 172:Core/Src/pwm.c ****         case SWITCH_SUB_MODE_19 :
 173:Core/Src/pwm.c ****             Target_Run_Temp = PWM_RUN_TEMP_19;
 174:Core/Src/pwm.c ****             Target_Run_Time = PWM_RUN_TIME_19;
 175:Core/Src/pwm.c ****             Target_Idle_Temp = PWM_IDLE_TEMP_19; 
 176:Core/Src/pwm.c ****         break;
 177:Core/Src/pwm.c ****         default :
 178:Core/Src/pwm.c ****             Target_Run_Temp = PWM_RUN_TEMP_0;
 179:Core/Src/pwm.c ****             Target_Run_Time = PWM_RUN_TIME_0;
 180:Core/Src/pwm.c ****             Target_Idle_Temp = PWM_IDLE_TEMP_0; 
 181:Core/Src/pwm.c ****         break;
 182:Core/Src/pwm.c ****     }
 183:Core/Src/pwm.c **** }
  84              		.loc 1 183 1 is_stmt 0 view .LVU9
  85              		@ sp needed
  86 0024 7047     		bx	lr
  87              	.L21:
  88:Core/Src/pwm.c ****             Target_Run_Time = PWM_RUN_TIME_2;
  88              		.loc 1 88 13 is_stmt 1 view .LVU10
  88:Core/Src/pwm.c ****             Target_Run_Time = PWM_RUN_TIME_2;
  89              		.loc 1 88 29 is_stmt 0 view .LVU11
  90 0026 614B     		ldr	r3, .L24+8
  91 0028 5A22     		movs	r2, #90
  92 002a 1A80     		strh	r2, [r3]
  89:Core/Src/pwm.c ****             Target_Idle_Temp = PWM_IDLE_TEMP_2; 
  93              		.loc 1 89 13 is_stmt 1 view .LVU12
  89:Core/Src/pwm.c ****             Target_Idle_Temp = PWM_IDLE_TEMP_2; 
  94              		.loc 1 89 29 is_stmt 0 view .LVU13
  95 002c 604B     		ldr	r3, .L24+12
  96 002e 634A     		ldr	r2, .L24+24
  97 0030 1A60     		str	r2, [r3]
  90:Core/Src/pwm.c ****         break;
  98              		.loc 1 90 13 is_stmt 1 view .LVU14
ARM GAS  C:\Users\jisu8\AppData\Local\Temp\ccfVxx9F.s 			page 6


  90:Core/Src/pwm.c ****         break;
  99              		.loc 1 90 30 is_stmt 0 view .LVU15
 100 0032 614B     		ldr	r3, .L24+20
 101 0034 4122     		movs	r2, #65
 102 0036 1A80     		strh	r2, [r3]
  91:Core/Src/pwm.c ****         case SWITCH_SUB_MODE_3 :
 103              		.loc 1 91 9 is_stmt 1 view .LVU16
 104 0038 F4E7     		b	.L1
 105              	.L20:
  93:Core/Src/pwm.c ****             Target_Run_Time = PWM_RUN_TIME_3;
 106              		.loc 1 93 13 view .LVU17
  93:Core/Src/pwm.c ****             Target_Run_Time = PWM_RUN_TIME_3;
 107              		.loc 1 93 29 is_stmt 0 view .LVU18
 108 003a 5C4B     		ldr	r3, .L24+8
 109 003c 5A22     		movs	r2, #90
 110 003e 1A80     		strh	r2, [r3]
  94:Core/Src/pwm.c ****             Target_Idle_Temp = PWM_IDLE_TEMP_3; 
 111              		.loc 1 94 13 is_stmt 1 view .LVU19
  94:Core/Src/pwm.c ****             Target_Idle_Temp = PWM_IDLE_TEMP_3; 
 112              		.loc 1 94 29 is_stmt 0 view .LVU20
 113 0040 5B4B     		ldr	r3, .L24+12
 114 0042 5E4A     		ldr	r2, .L24+24
 115 0044 1A60     		str	r2, [r3]
  95:Core/Src/pwm.c ****         break;
 116              		.loc 1 95 13 is_stmt 1 view .LVU21
  95:Core/Src/pwm.c ****         break;
 117              		.loc 1 95 30 is_stmt 0 view .LVU22
 118 0046 5C4B     		ldr	r3, .L24+20
 119 0048 0522     		movs	r2, #5
 120 004a 1A80     		strh	r2, [r3]
  96:Core/Src/pwm.c ****         case SWITCH_SUB_MODE_4 :
 121              		.loc 1 96 9 is_stmt 1 view .LVU23
 122 004c EAE7     		b	.L1
 123              	.L19:
  98:Core/Src/pwm.c ****             Target_Run_Time = PWM_RUN_TIME_4;
 124              		.loc 1 98 13 view .LVU24
  98:Core/Src/pwm.c ****             Target_Run_Time = PWM_RUN_TIME_4;
 125              		.loc 1 98 29 is_stmt 0 view .LVU25
 126 004e 4123     		movs	r3, #65
 127 0050 564A     		ldr	r2, .L24+8
 128 0052 1380     		strh	r3, [r2]
  99:Core/Src/pwm.c ****             Target_Idle_Temp = PWM_IDLE_TEMP_4; 
 129              		.loc 1 99 13 is_stmt 1 view .LVU26
  99:Core/Src/pwm.c ****             Target_Idle_Temp = PWM_IDLE_TEMP_4; 
 130              		.loc 1 99 29 is_stmt 0 view .LVU27
 131 0054 564A     		ldr	r2, .L24+12
 132 0056 5949     		ldr	r1, .L24+24
 133 0058 1160     		str	r1, [r2]
 100:Core/Src/pwm.c ****         break;
 134              		.loc 1 100 13 is_stmt 1 view .LVU28
 100:Core/Src/pwm.c ****         break;
 135              		.loc 1 100 30 is_stmt 0 view .LVU29
 136 005a 574A     		ldr	r2, .L24+20
 137 005c 1380     		strh	r3, [r2]
 101:Core/Src/pwm.c ****         case SWITCH_SUB_MODE_5 :
 138              		.loc 1 101 9 is_stmt 1 view .LVU30
 139 005e E1E7     		b	.L1
ARM GAS  C:\Users\jisu8\AppData\Local\Temp\ccfVxx9F.s 			page 7


 140              	.L18:
 103:Core/Src/pwm.c ****             Target_Run_Time = PWM_RUN_TIME_5;
 141              		.loc 1 103 13 view .LVU31
 103:Core/Src/pwm.c ****             Target_Run_Time = PWM_RUN_TIME_5;
 142              		.loc 1 103 29 is_stmt 0 view .LVU32
 143 0060 0523     		movs	r3, #5
 144 0062 524A     		ldr	r2, .L24+8
 145 0064 1380     		strh	r3, [r2]
 104:Core/Src/pwm.c ****             Target_Idle_Temp = PWM_IDLE_TEMP_5; 
 146              		.loc 1 104 13 is_stmt 1 view .LVU33
 104:Core/Src/pwm.c ****             Target_Idle_Temp = PWM_IDLE_TEMP_5; 
 147              		.loc 1 104 29 is_stmt 0 view .LVU34
 148 0066 524A     		ldr	r2, .L24+12
 149 0068 5449     		ldr	r1, .L24+24
 150 006a 1160     		str	r1, [r2]
 105:Core/Src/pwm.c ****         break;
 151              		.loc 1 105 13 is_stmt 1 view .LVU35
 105:Core/Src/pwm.c ****         break;
 152              		.loc 1 105 30 is_stmt 0 view .LVU36
 153 006c 524A     		ldr	r2, .L24+20
 154 006e 1380     		strh	r3, [r2]
 106:Core/Src/pwm.c ****         case SWITCH_SUB_MODE_6 :
 155              		.loc 1 106 9 is_stmt 1 view .LVU37
 156 0070 D8E7     		b	.L1
 157              	.L17:
 108:Core/Src/pwm.c ****             Target_Run_Time = PWM_RUN_TIME_6;
 158              		.loc 1 108 13 view .LVU38
 108:Core/Src/pwm.c ****             Target_Run_Time = PWM_RUN_TIME_6;
 159              		.loc 1 108 29 is_stmt 0 view .LVU39
 160 0072 4E4B     		ldr	r3, .L24+8
 161 0074 5A22     		movs	r2, #90
 162 0076 1A80     		strh	r2, [r3]
 109:Core/Src/pwm.c ****             Target_Idle_Temp = PWM_IDLE_TEMP_6; 
 163              		.loc 1 109 13 is_stmt 1 view .LVU40
 109:Core/Src/pwm.c ****             Target_Idle_Temp = PWM_IDLE_TEMP_6; 
 164              		.loc 1 109 29 is_stmt 0 view .LVU41
 165 0078 4D4B     		ldr	r3, .L24+12
 166 007a 504A     		ldr	r2, .L24+24
 167 007c 1A60     		str	r2, [r3]
 110:Core/Src/pwm.c ****         break;
 168              		.loc 1 110 13 is_stmt 1 view .LVU42
 110:Core/Src/pwm.c ****         break;
 169              		.loc 1 110 30 is_stmt 0 view .LVU43
 170 007e 4E4B     		ldr	r3, .L24+20
 171 0080 4122     		movs	r2, #65
 172 0082 1A80     		strh	r2, [r3]
 111:Core/Src/pwm.c ****         case SWITCH_SUB_MODE_7 :
 173              		.loc 1 111 9 is_stmt 1 view .LVU44
 174 0084 CEE7     		b	.L1
 175              	.L16:
 113:Core/Src/pwm.c ****             Target_Run_Time = PWM_RUN_TIME_7;
 176              		.loc 1 113 13 view .LVU45
 113:Core/Src/pwm.c ****             Target_Run_Time = PWM_RUN_TIME_7;
 177              		.loc 1 113 29 is_stmt 0 view .LVU46
 178 0086 494B     		ldr	r3, .L24+8
 179 0088 2822     		movs	r2, #40
 180 008a 1A80     		strh	r2, [r3]
ARM GAS  C:\Users\jisu8\AppData\Local\Temp\ccfVxx9F.s 			page 8


 114:Core/Src/pwm.c ****             Target_Idle_Temp = PWM_IDLE_TEMP_7; 
 181              		.loc 1 114 13 is_stmt 1 view .LVU47
 114:Core/Src/pwm.c ****             Target_Idle_Temp = PWM_IDLE_TEMP_7; 
 182              		.loc 1 114 29 is_stmt 0 view .LVU48
 183 008c 484B     		ldr	r3, .L24+12
 184 008e 4C4A     		ldr	r2, .L24+28
 185 0090 1A60     		str	r2, [r3]
 115:Core/Src/pwm.c ****         break;
 186              		.loc 1 115 13 is_stmt 1 view .LVU49
 115:Core/Src/pwm.c ****         break;
 187              		.loc 1 115 30 is_stmt 0 view .LVU50
 188 0092 494B     		ldr	r3, .L24+20
 189 0094 0522     		movs	r2, #5
 190 0096 1A80     		strh	r2, [r3]
 116:Core/Src/pwm.c ****         case SWITCH_SUB_MODE_8 :
 191              		.loc 1 116 9 is_stmt 1 view .LVU51
 192 0098 C4E7     		b	.L1
 193              	.L15:
 118:Core/Src/pwm.c ****             Target_Run_Time = PWM_RUN_TIME_8;
 194              		.loc 1 118 13 view .LVU52
 118:Core/Src/pwm.c ****             Target_Run_Time = PWM_RUN_TIME_8;
 195              		.loc 1 118 29 is_stmt 0 view .LVU53
 196 009a 444B     		ldr	r3, .L24+8
 197 009c 5A22     		movs	r2, #90
 198 009e 1A80     		strh	r2, [r3]
 119:Core/Src/pwm.c ****             Target_Idle_Temp = PWM_IDLE_TEMP_8; 
 199              		.loc 1 119 13 is_stmt 1 view .LVU54
 119:Core/Src/pwm.c ****             Target_Idle_Temp = PWM_IDLE_TEMP_8; 
 200              		.loc 1 119 29 is_stmt 0 view .LVU55
 201 00a0 434B     		ldr	r3, .L24+12
 202 00a2 474A     		ldr	r2, .L24+28
 203 00a4 1A60     		str	r2, [r3]
 120:Core/Src/pwm.c ****         break;
 204              		.loc 1 120 13 is_stmt 1 view .LVU56
 120:Core/Src/pwm.c ****         break;
 205              		.loc 1 120 30 is_stmt 0 view .LVU57
 206 00a6 444B     		ldr	r3, .L24+20
 207 00a8 4122     		movs	r2, #65
 208 00aa 1A80     		strh	r2, [r3]
 121:Core/Src/pwm.c ****         case SWITCH_SUB_MODE_9 :
 209              		.loc 1 121 9 is_stmt 1 view .LVU58
 210 00ac BAE7     		b	.L1
 211              	.L14:
 123:Core/Src/pwm.c ****             Target_Run_Time = PWM_RUN_TIME_9;
 212              		.loc 1 123 13 view .LVU59
 123:Core/Src/pwm.c ****             Target_Run_Time = PWM_RUN_TIME_9;
 213              		.loc 1 123 29 is_stmt 0 view .LVU60
 214 00ae 3F4B     		ldr	r3, .L24+8
 215 00b0 5A22     		movs	r2, #90
 216 00b2 1A80     		strh	r2, [r3]
 124:Core/Src/pwm.c ****             Target_Idle_Temp = PWM_IDLE_TEMP_9; 
 217              		.loc 1 124 13 is_stmt 1 view .LVU61
 124:Core/Src/pwm.c ****             Target_Idle_Temp = PWM_IDLE_TEMP_9; 
 218              		.loc 1 124 29 is_stmt 0 view .LVU62
 219 00b4 3E4B     		ldr	r3, .L24+12
 220 00b6 3F4A     		ldr	r2, .L24+16
 221 00b8 1A60     		str	r2, [r3]
ARM GAS  C:\Users\jisu8\AppData\Local\Temp\ccfVxx9F.s 			page 9


 125:Core/Src/pwm.c ****         break;
 222              		.loc 1 125 13 is_stmt 1 view .LVU63
 125:Core/Src/pwm.c ****         break;
 223              		.loc 1 125 30 is_stmt 0 view .LVU64
 224 00ba 3F4B     		ldr	r3, .L24+20
 225 00bc 4122     		movs	r2, #65
 226 00be 1A80     		strh	r2, [r3]
 126:Core/Src/pwm.c ****         case SWITCH_SUB_MODE_10 :
 227              		.loc 1 126 9 is_stmt 1 view .LVU65
 228 00c0 B0E7     		b	.L1
 229              	.L13:
 128:Core/Src/pwm.c ****             Target_Run_Time = PWM_RUN_TIME_10;
 230              		.loc 1 128 13 view .LVU66
 128:Core/Src/pwm.c ****             Target_Run_Time = PWM_RUN_TIME_10;
 231              		.loc 1 128 29 is_stmt 0 view .LVU67
 232 00c2 3A4B     		ldr	r3, .L24+8
 233 00c4 5A22     		movs	r2, #90
 234 00c6 1A80     		strh	r2, [r3]
 129:Core/Src/pwm.c ****             Target_Idle_Temp = PWM_IDLE_TEMP_10; 
 235              		.loc 1 129 13 is_stmt 1 view .LVU68
 129:Core/Src/pwm.c ****             Target_Idle_Temp = PWM_IDLE_TEMP_10; 
 236              		.loc 1 129 29 is_stmt 0 view .LVU69
 237 00c8 394B     		ldr	r3, .L24+12
 238 00ca 3E4A     		ldr	r2, .L24+32
 239 00cc 1A60     		str	r2, [r3]
 130:Core/Src/pwm.c ****         break;
 240              		.loc 1 130 13 is_stmt 1 view .LVU70
 130:Core/Src/pwm.c ****         break;
 241              		.loc 1 130 30 is_stmt 0 view .LVU71
 242 00ce 3A4B     		ldr	r3, .L24+20
 243 00d0 4122     		movs	r2, #65
 244 00d2 1A80     		strh	r2, [r3]
 131:Core/Src/pwm.c ****         case SWITCH_SUB_MODE_11 :
 245              		.loc 1 131 9 is_stmt 1 view .LVU72
 246 00d4 A6E7     		b	.L1
 247              	.L12:
 133:Core/Src/pwm.c ****             Target_Run_Time = PWM_RUN_TIME_11;
 248              		.loc 1 133 13 view .LVU73
 133:Core/Src/pwm.c ****             Target_Run_Time = PWM_RUN_TIME_11;
 249              		.loc 1 133 29 is_stmt 0 view .LVU74
 250 00d6 354B     		ldr	r3, .L24+8
 251 00d8 5A22     		movs	r2, #90
 252 00da 1A80     		strh	r2, [r3]
 134:Core/Src/pwm.c ****             Target_Idle_Temp = PWM_IDLE_TEMP_11; 
 253              		.loc 1 134 13 is_stmt 1 view .LVU75
 134:Core/Src/pwm.c ****             Target_Idle_Temp = PWM_IDLE_TEMP_11; 
 254              		.loc 1 134 29 is_stmt 0 view .LVU76
 255 00dc 344B     		ldr	r3, .L24+12
 256 00de 3A4A     		ldr	r2, .L24+36
 257 00e0 1A60     		str	r2, [r3]
 135:Core/Src/pwm.c ****         break;
 258              		.loc 1 135 13 is_stmt 1 view .LVU77
 135:Core/Src/pwm.c ****         break;
 259              		.loc 1 135 30 is_stmt 0 view .LVU78
 260 00e2 354B     		ldr	r3, .L24+20
 261 00e4 4122     		movs	r2, #65
 262 00e6 1A80     		strh	r2, [r3]
ARM GAS  C:\Users\jisu8\AppData\Local\Temp\ccfVxx9F.s 			page 10


 136:Core/Src/pwm.c ****         case SWITCH_SUB_MODE_12 :
 263              		.loc 1 136 9 is_stmt 1 view .LVU79
 264 00e8 9CE7     		b	.L1
 265              	.L11:
 138:Core/Src/pwm.c ****             Target_Run_Time = PWM_RUN_TIME_12;
 266              		.loc 1 138 13 view .LVU80
 138:Core/Src/pwm.c ****             Target_Run_Time = PWM_RUN_TIME_12;
 267              		.loc 1 138 29 is_stmt 0 view .LVU81
 268 00ea 304B     		ldr	r3, .L24+8
 269 00ec 5A22     		movs	r2, #90
 270 00ee 1A80     		strh	r2, [r3]
 139:Core/Src/pwm.c ****             Target_Idle_Temp = PWM_IDLE_TEMP_12; 
 271              		.loc 1 139 13 is_stmt 1 view .LVU82
 139:Core/Src/pwm.c ****             Target_Idle_Temp = PWM_IDLE_TEMP_12; 
 272              		.loc 1 139 29 is_stmt 0 view .LVU83
 273 00f0 2F4B     		ldr	r3, .L24+12
 274 00f2 324A     		ldr	r2, .L24+24
 275 00f4 1A60     		str	r2, [r3]
 140:Core/Src/pwm.c ****         break;
 276              		.loc 1 140 13 is_stmt 1 view .LVU84
 140:Core/Src/pwm.c ****         break;
 277              		.loc 1 140 30 is_stmt 0 view .LVU85
 278 00f6 304B     		ldr	r3, .L24+20
 279 00f8 4122     		movs	r2, #65
 280 00fa 1A80     		strh	r2, [r3]
 141:Core/Src/pwm.c ****         case SWITCH_SUB_MODE_13 :
 281              		.loc 1 141 9 is_stmt 1 view .LVU86
 282 00fc 92E7     		b	.L1
 283              	.L10:
 143:Core/Src/pwm.c ****             Target_Run_Time = PWM_RUN_TIME_13;
 284              		.loc 1 143 13 view .LVU87
 143:Core/Src/pwm.c ****             Target_Run_Time = PWM_RUN_TIME_13;
 285              		.loc 1 143 29 is_stmt 0 view .LVU88
 286 00fe 2B4B     		ldr	r3, .L24+8
 287 0100 5022     		movs	r2, #80
 288 0102 1A80     		strh	r2, [r3]
 144:Core/Src/pwm.c ****             Target_Idle_Temp = PWM_IDLE_TEMP_13; 
 289              		.loc 1 144 13 is_stmt 1 view .LVU89
 144:Core/Src/pwm.c ****             Target_Idle_Temp = PWM_IDLE_TEMP_13; 
 290              		.loc 1 144 29 is_stmt 0 view .LVU90
 291 0104 2A4B     		ldr	r3, .L24+12
 292 0106 314A     		ldr	r2, .L24+40
 293 0108 1A60     		str	r2, [r3]
 145:Core/Src/pwm.c ****         break;
 294              		.loc 1 145 13 is_stmt 1 view .LVU91
 145:Core/Src/pwm.c ****         break;
 295              		.loc 1 145 30 is_stmt 0 view .LVU92
 296 010a 2B4B     		ldr	r3, .L24+20
 297 010c 4122     		movs	r2, #65
 298 010e 1A80     		strh	r2, [r3]
 146:Core/Src/pwm.c ****         case SWITCH_SUB_MODE_14 :
 299              		.loc 1 146 9 is_stmt 1 view .LVU93
 300 0110 88E7     		b	.L1
 301              	.L9:
 148:Core/Src/pwm.c ****             Target_Run_Time = PWM_RUN_TIME_14;
 302              		.loc 1 148 13 view .LVU94
 148:Core/Src/pwm.c ****             Target_Run_Time = PWM_RUN_TIME_14;
ARM GAS  C:\Users\jisu8\AppData\Local\Temp\ccfVxx9F.s 			page 11


 303              		.loc 1 148 29 is_stmt 0 view .LVU95
 304 0112 264B     		ldr	r3, .L24+8
 305 0114 5A22     		movs	r2, #90
 306 0116 1A80     		strh	r2, [r3]
 149:Core/Src/pwm.c ****             Target_Idle_Temp = PWM_IDLE_TEMP_14; 
 307              		.loc 1 149 13 is_stmt 1 view .LVU96
 149:Core/Src/pwm.c ****             Target_Idle_Temp = PWM_IDLE_TEMP_14; 
 308              		.loc 1 149 29 is_stmt 0 view .LVU97
 309 0118 254B     		ldr	r3, .L24+12
 310 011a 2A4A     		ldr	r2, .L24+32
 311 011c 1A60     		str	r2, [r3]
 150:Core/Src/pwm.c ****         break;
 312              		.loc 1 150 13 is_stmt 1 view .LVU98
 150:Core/Src/pwm.c ****         break;
 313              		.loc 1 150 30 is_stmt 0 view .LVU99
 314 011e 264B     		ldr	r3, .L24+20
 315 0120 4122     		movs	r2, #65
 316 0122 1A80     		strh	r2, [r3]
 151:Core/Src/pwm.c ****         case SWITCH_SUB_MODE_15 :
 317              		.loc 1 151 9 is_stmt 1 view .LVU100
 318 0124 7EE7     		b	.L1
 319              	.L8:
 153:Core/Src/pwm.c ****             Target_Run_Time = PWM_RUN_TIME_15;
 320              		.loc 1 153 13 view .LVU101
 153:Core/Src/pwm.c ****             Target_Run_Time = PWM_RUN_TIME_15;
 321              		.loc 1 153 29 is_stmt 0 view .LVU102
 322 0126 214B     		ldr	r3, .L24+8
 323 0128 5A22     		movs	r2, #90
 324 012a 1A80     		strh	r2, [r3]
 154:Core/Src/pwm.c ****             Target_Idle_Temp = PWM_IDLE_TEMP_15; 
 325              		.loc 1 154 13 is_stmt 1 view .LVU103
 154:Core/Src/pwm.c ****             Target_Idle_Temp = PWM_IDLE_TEMP_15; 
 326              		.loc 1 154 29 is_stmt 0 view .LVU104
 327 012c 204B     		ldr	r3, .L24+12
 328 012e 264A     		ldr	r2, .L24+36
 329 0130 1A60     		str	r2, [r3]
 155:Core/Src/pwm.c ****         break;
 330              		.loc 1 155 13 is_stmt 1 view .LVU105
 155:Core/Src/pwm.c ****         break;
 331              		.loc 1 155 30 is_stmt 0 view .LVU106
 332 0132 214B     		ldr	r3, .L24+20
 333 0134 4122     		movs	r2, #65
 334 0136 1A80     		strh	r2, [r3]
 156:Core/Src/pwm.c ****         case SWITCH_SUB_MODE_16 :
 335              		.loc 1 156 9 is_stmt 1 view .LVU107
 336 0138 74E7     		b	.L1
 337              	.L7:
 158:Core/Src/pwm.c ****             Target_Run_Time = PWM_RUN_TIME_16;
 338              		.loc 1 158 13 view .LVU108
 158:Core/Src/pwm.c ****             Target_Run_Time = PWM_RUN_TIME_16;
 339              		.loc 1 158 29 is_stmt 0 view .LVU109
 340 013a 1C4B     		ldr	r3, .L24+8
 341 013c 5A22     		movs	r2, #90
 342 013e 1A80     		strh	r2, [r3]
 159:Core/Src/pwm.c ****             Target_Idle_Temp = PWM_IDLE_TEMP_16; 
 343              		.loc 1 159 13 is_stmt 1 view .LVU110
 159:Core/Src/pwm.c ****             Target_Idle_Temp = PWM_IDLE_TEMP_16; 
ARM GAS  C:\Users\jisu8\AppData\Local\Temp\ccfVxx9F.s 			page 12


 344              		.loc 1 159 29 is_stmt 0 view .LVU111
 345 0140 1B4B     		ldr	r3, .L24+12
 346 0142 204A     		ldr	r2, .L24+32
 347 0144 1A60     		str	r2, [r3]
 160:Core/Src/pwm.c ****         break;
 348              		.loc 1 160 13 is_stmt 1 view .LVU112
 160:Core/Src/pwm.c ****         break;
 349              		.loc 1 160 30 is_stmt 0 view .LVU113
 350 0146 1C4B     		ldr	r3, .L24+20
 351 0148 2822     		movs	r2, #40
 352 014a 1A80     		strh	r2, [r3]
 161:Core/Src/pwm.c ****         case SWITCH_SUB_MODE_17 :
 353              		.loc 1 161 9 is_stmt 1 view .LVU114
 354 014c 6AE7     		b	.L1
 355              	.L6:
 163:Core/Src/pwm.c ****             Target_Run_Time = (sint32)(switch_trg_time * 60 * 100);
 356              		.loc 1 163 13 view .LVU115
 163:Core/Src/pwm.c ****             Target_Run_Time = (sint32)(switch_trg_time * 60 * 100);
 357              		.loc 1 163 29 is_stmt 0 view .LVU116
 358 014e 204B     		ldr	r3, .L24+44
 359 0150 1A88     		ldrh	r2, [r3]
 360 0152 164B     		ldr	r3, .L24+8
 361 0154 1A80     		strh	r2, [r3]
 164:Core/Src/pwm.c ****             Target_Idle_Temp = switch_idle_temp; 
 362              		.loc 1 164 13 is_stmt 1 view .LVU117
 164:Core/Src/pwm.c ****             Target_Idle_Temp = switch_idle_temp; 
 363              		.loc 1 164 31 is_stmt 0 view .LVU118
 364 0156 1F4B     		ldr	r3, .L24+48
 365 0158 0022     		movs	r2, #0
 366 015a 9A5E     		ldrsh	r2, [r3, r2]
 367 015c 174B     		ldr	r3, .L24+24
 368 015e 5343     		muls	r3, r2
 164:Core/Src/pwm.c ****             Target_Idle_Temp = switch_idle_temp; 
 369              		.loc 1 164 29 view .LVU119
 370 0160 134A     		ldr	r2, .L24+12
 371 0162 1360     		str	r3, [r2]
 165:Core/Src/pwm.c ****         break;
 372              		.loc 1 165 13 is_stmt 1 view .LVU120
 165:Core/Src/pwm.c ****         break;
 373              		.loc 1 165 30 is_stmt 0 view .LVU121
 374 0164 1C4B     		ldr	r3, .L24+52
 375 0166 1A88     		ldrh	r2, [r3]
 376 0168 134B     		ldr	r3, .L24+20
 377 016a 1A80     		strh	r2, [r3]
 166:Core/Src/pwm.c ****         case SWITCH_SUB_MODE_18 :
 378              		.loc 1 166 9 is_stmt 1 view .LVU122
 379 016c 5AE7     		b	.L1
 380              	.L5:
 168:Core/Src/pwm.c ****             Target_Run_Time = PWM_RUN_TIME_18;
 381              		.loc 1 168 13 view .LVU123
 168:Core/Src/pwm.c ****             Target_Run_Time = PWM_RUN_TIME_18;
 382              		.loc 1 168 29 is_stmt 0 view .LVU124
 383 016e 0523     		movs	r3, #5
 384 0170 0E4A     		ldr	r2, .L24+8
 385 0172 1380     		strh	r3, [r2]
 169:Core/Src/pwm.c ****             Target_Idle_Temp = PWM_IDLE_TEMP_18; 
 386              		.loc 1 169 13 is_stmt 1 view .LVU125
ARM GAS  C:\Users\jisu8\AppData\Local\Temp\ccfVxx9F.s 			page 13


 169:Core/Src/pwm.c ****             Target_Idle_Temp = PWM_IDLE_TEMP_18; 
 387              		.loc 1 169 29 is_stmt 0 view .LVU126
 388 0174 0E4A     		ldr	r2, .L24+12
 389 0176 1149     		ldr	r1, .L24+24
 390 0178 1160     		str	r1, [r2]
 170:Core/Src/pwm.c ****         break;
 391              		.loc 1 170 13 is_stmt 1 view .LVU127
 170:Core/Src/pwm.c ****         break;
 392              		.loc 1 170 30 is_stmt 0 view .LVU128
 393 017a 0F4A     		ldr	r2, .L24+20
 394 017c 1380     		strh	r3, [r2]
 171:Core/Src/pwm.c ****         case SWITCH_SUB_MODE_19 :
 395              		.loc 1 171 9 is_stmt 1 view .LVU129
 396 017e 51E7     		b	.L1
 397              	.L3:
 173:Core/Src/pwm.c ****             Target_Run_Time = PWM_RUN_TIME_19;
 398              		.loc 1 173 13 view .LVU130
 173:Core/Src/pwm.c ****             Target_Run_Time = PWM_RUN_TIME_19;
 399              		.loc 1 173 29 is_stmt 0 view .LVU131
 400 0180 3C23     		movs	r3, #60
 401 0182 0A4A     		ldr	r2, .L24+8
 402 0184 1380     		strh	r3, [r2]
 174:Core/Src/pwm.c ****             Target_Idle_Temp = PWM_IDLE_TEMP_19; 
 403              		.loc 1 174 13 is_stmt 1 view .LVU132
 174:Core/Src/pwm.c ****             Target_Idle_Temp = PWM_IDLE_TEMP_19; 
 404              		.loc 1 174 29 is_stmt 0 view .LVU133
 405 0186 0A4A     		ldr	r2, .L24+12
 406 0188 0C49     		ldr	r1, .L24+24
 407 018a 1160     		str	r1, [r2]
 175:Core/Src/pwm.c ****         break;
 408              		.loc 1 175 13 is_stmt 1 view .LVU134
 175:Core/Src/pwm.c ****         break;
 409              		.loc 1 175 30 is_stmt 0 view .LVU135
 410 018c 0A4A     		ldr	r2, .L24+20
 411 018e 1380     		strh	r3, [r2]
 176:Core/Src/pwm.c ****         default :
 412              		.loc 1 176 9 is_stmt 1 view .LVU136
 413 0190 48E7     		b	.L1
 414              	.L2:
 178:Core/Src/pwm.c ****             Target_Run_Time = PWM_RUN_TIME_0;
 415              		.loc 1 178 13 view .LVU137
 178:Core/Src/pwm.c ****             Target_Run_Time = PWM_RUN_TIME_0;
 416              		.loc 1 178 29 is_stmt 0 view .LVU138
 417 0192 0023     		movs	r3, #0
 418 0194 054A     		ldr	r2, .L24+8
 419 0196 1380     		strh	r3, [r2]
 179:Core/Src/pwm.c ****             Target_Idle_Temp = PWM_IDLE_TEMP_0; 
 420              		.loc 1 179 13 is_stmt 1 view .LVU139
 179:Core/Src/pwm.c ****             Target_Idle_Temp = PWM_IDLE_TEMP_0; 
 421              		.loc 1 179 29 is_stmt 0 view .LVU140
 422 0198 054A     		ldr	r2, .L24+12
 423 019a 1360     		str	r3, [r2]
 180:Core/Src/pwm.c ****         break;
 424              		.loc 1 180 13 is_stmt 1 view .LVU141
 180:Core/Src/pwm.c ****         break;
 425              		.loc 1 180 30 is_stmt 0 view .LVU142
 426 019c 064A     		ldr	r2, .L24+20
ARM GAS  C:\Users\jisu8\AppData\Local\Temp\ccfVxx9F.s 			page 14


 427 019e 1380     		strh	r3, [r2]
 181:Core/Src/pwm.c ****     }
 428              		.loc 1 181 9 is_stmt 1 view .LVU143
 429              		.loc 1 183 1 is_stmt 0 view .LVU144
 430 01a0 40E7     		b	.L1
 431              	.L25:
 432 01a2 C046     		.align	2
 433              	.L24:
 434 01a4 00000000 		.word	switch_submode
 435 01a8 00000000 		.word	.L4
 436 01ac 00000000 		.word	.LANCHOR0
 437 01b0 00000000 		.word	.LANCHOR1
 438 01b4 60EA0000 		.word	60000
 439 01b8 00000000 		.word	.LANCHOR2
 440 01bc 70170000 		.word	6000
 441 01c0 50460000 		.word	18000
 442 01c4 E02E0000 		.word	12000
 443 01c8 30750000 		.word	30000
 444 01cc C0D40100 		.word	120000
 445 01d0 00000000 		.word	switch_trg_temp
 446 01d4 00000000 		.word	switch_trg_time
 447 01d8 00000000 		.word	switch_idle_temp
 448              		.cfi_endproc
 449              	.LFE41:
 451              		.section	.text.Pwm_Peltier_Set_Duty,"ax",%progbits
 452              		.align	1
 453              		.syntax unified
 454              		.code	16
 455              		.thumb_func
 457              	Pwm_Peltier_Set_Duty:
 458              	.LVL0:
 459              	.LFB43:
 184:Core/Src/pwm.c **** static void Pwm_Control(void)
 185:Core/Src/pwm.c **** {
 186:Core/Src/pwm.c ****     sint16 tempLoc;
 187:Core/Src/pwm.c ****     sint16 TrgTempLoc;
 188:Core/Src/pwm.c ****     static uint8 first_status;
 189:Core/Src/pwm.c ****     if(first_target_flag == PWM_SUBMODE_TARGET_ON)
 190:Core/Src/pwm.c ****     {
 191:Core/Src/pwm.c ****         first_status = 0;
 192:Core/Src/pwm.c ****         first_target_flag = PWM_SUBMODE_TARGET_OFF;
 193:Core/Src/pwm.c ****     }
 194:Core/Src/pwm.c ****     tempLoc = Temp_Adc_TP;
 195:Core/Src/pwm.c ****     if((Target_Run_Time>0)&&(tempLoc>(Target_Run_Temp-5))&&(tempLoc<(Target_Run_Temp+5)))
 196:Core/Src/pwm.c ****     {
 197:Core/Src/pwm.c ****         first_status = 1;
 198:Core/Src/pwm.c ****     }
 199:Core/Src/pwm.c ****     TrgTempLoc = Target_Run_Temp;
 200:Core/Src/pwm.c **** 
 201:Core/Src/pwm.c ****     if(first_status == 1)
 202:Core/Src/pwm.c ****     {
 203:Core/Src/pwm.c ****         Target_Run_Time--;
 204:Core/Src/pwm.c ****         if(Target_Run_Time<=0)
 205:Core/Src/pwm.c ****         {
 206:Core/Src/pwm.c ****             Target_Run_Time = 0;
 207:Core/Src/pwm.c ****             first_status = 2;
 208:Core/Src/pwm.c ****         }
ARM GAS  C:\Users\jisu8\AppData\Local\Temp\ccfVxx9F.s 			page 15


 209:Core/Src/pwm.c ****     }
 210:Core/Src/pwm.c ****     if(first_status == 2)
 211:Core/Src/pwm.c ****     {
 212:Core/Src/pwm.c ****         TrgTempLoc = Target_Idle_Temp;
 213:Core/Src/pwm.c ****     }
 214:Core/Src/pwm.c **** 
 215:Core/Src/pwm.c ****     if((TrgTempLoc - tempLoc)>0)
 216:Core/Src/pwm.c ****     {
 217:Core/Src/pwm.c ****         Pwm_Duty_Heater++;
 218:Core/Src/pwm.c ****         Pwm_Duty_Peltier--;
 219:Core/Src/pwm.c ****         Pwm_Led_Mode = PWM_LED_MODE_HEATING;
 220:Core/Src/pwm.c ****     }
 221:Core/Src/pwm.c ****     else 
 222:Core/Src/pwm.c ****     {
 223:Core/Src/pwm.c ****         Pwm_Duty_Heater--;
 224:Core/Src/pwm.c ****         Pwm_Duty_Peltier++;
 225:Core/Src/pwm.c ****         Pwm_Led_Mode = PWM_LED_MODE_COOLING;
 226:Core/Src/pwm.c ****     }
 227:Core/Src/pwm.c **** 
 228:Core/Src/pwm.c ****     if((TrgTempLoc - tempLoc)>=1)
 229:Core/Src/pwm.c ****     {
 230:Core/Src/pwm.c ****         Pwm_Duty_Fan--;
 231:Core/Src/pwm.c ****     }
 232:Core/Src/pwm.c ****     else if((TrgTempLoc - tempLoc)<= -1)
 233:Core/Src/pwm.c ****     {
 234:Core/Src/pwm.c **** 
 235:Core/Src/pwm.c ****         Pwm_Duty_Fan++;
 236:Core/Src/pwm.c ****     }
 237:Core/Src/pwm.c ****     else
 238:Core/Src/pwm.c ****     {
 239:Core/Src/pwm.c ****         /* hold fan pwm duty */
 240:Core/Src/pwm.c ****     }
 241:Core/Src/pwm.c **** 
 242:Core/Src/pwm.c ****     if(Pwm_Duty_Heater >= PWM_DUTY_MAX)
 243:Core/Src/pwm.c ****     {
 244:Core/Src/pwm.c ****         Pwm_Duty_Heater = PWM_DUTY_MAX;
 245:Core/Src/pwm.c ****     }
 246:Core/Src/pwm.c ****     if(Pwm_Duty_Heater <= PWM_DUTY_MIN)
 247:Core/Src/pwm.c ****     {
 248:Core/Src/pwm.c ****         Pwm_Duty_Heater = PWM_DUTY_MIN;
 249:Core/Src/pwm.c ****     }
 250:Core/Src/pwm.c **** 
 251:Core/Src/pwm.c ****     if(Pwm_Duty_Peltier >= PWM_DUTY_MAX)
 252:Core/Src/pwm.c ****     {
 253:Core/Src/pwm.c ****         Pwm_Duty_Peltier = PWM_DUTY_MAX;
 254:Core/Src/pwm.c ****     }
 255:Core/Src/pwm.c ****     if(Pwm_Duty_Peltier <= PWM_DUTY_MIN)
 256:Core/Src/pwm.c ****     {
 257:Core/Src/pwm.c ****         Pwm_Duty_Peltier = PWM_DUTY_MIN;
 258:Core/Src/pwm.c ****     }
 259:Core/Src/pwm.c **** 
 260:Core/Src/pwm.c ****     if(Pwm_Duty_Fan >= PWM_DUTY_MAX)
 261:Core/Src/pwm.c ****     {
 262:Core/Src/pwm.c ****         Pwm_Duty_Fan = PWM_DUTY_MAX;
 263:Core/Src/pwm.c ****     }
 264:Core/Src/pwm.c ****     if(Pwm_Duty_Fan <= PWM_DUTY_MIN)
 265:Core/Src/pwm.c ****     {
ARM GAS  C:\Users\jisu8\AppData\Local\Temp\ccfVxx9F.s 			page 16


 266:Core/Src/pwm.c ****         Pwm_Duty_Fan = PWM_DUTY_MIN;
 267:Core/Src/pwm.c ****     }
 268:Core/Src/pwm.c **** 
 269:Core/Src/pwm.c ****     Pwm_Heater_Set_Duty(Pwm_Duty_Heater);
 270:Core/Src/pwm.c ****     Pwm_Peltier_Set_Duty(Pwm_Duty_Peltier);
 271:Core/Src/pwm.c ****     Pwm_Fan_Set_Duty(Pwm_Duty_Fan);
 272:Core/Src/pwm.c **** }
 273:Core/Src/pwm.c **** 
 274:Core/Src/pwm.c **** static void Pwm_Peltier_Set_Duty(uint16 duty)
 275:Core/Src/pwm.c **** {
 460              		.loc 1 275 1 is_stmt 1 view -0
 461              		.cfi_startproc
 462              		@ args = 0, pretend = 0, frame = 0
 463              		@ frame_needed = 0, uses_anonymous_args = 0
 464              		@ link register save eliminated.
 276:Core/Src/pwm.c ****     /* Resolution : 0.1[%] */
 277:Core/Src/pwm.c ****     PWM_TIM_MODULE_PELTIER-> PWM_TIM_CH_PELTIER = duty;
 465              		.loc 1 277 5 view .LVU146
 466              		.loc 1 277 49 is_stmt 0 view .LVU147
 467 0000 014B     		ldr	r3, .L27
 468 0002 9863     		str	r0, [r3, #56]
 278:Core/Src/pwm.c **** }
 469              		.loc 1 278 1 view .LVU148
 470              		@ sp needed
 471 0004 7047     		bx	lr
 472              	.L28:
 473 0006 C046     		.align	2
 474              	.L27:
 475 0008 00040040 		.word	1073742848
 476              		.cfi_endproc
 477              	.LFE43:
 479              		.section	.text.Pwm_Heater_Set_Duty,"ax",%progbits
 480              		.align	1
 481              		.syntax unified
 482              		.code	16
 483              		.thumb_func
 485              	Pwm_Heater_Set_Duty:
 486              	.LVL1:
 487              	.LFB44:
 279:Core/Src/pwm.c **** 
 280:Core/Src/pwm.c **** static void Pwm_Heater_Set_Duty(uint16 duty)
 281:Core/Src/pwm.c **** {
 488              		.loc 1 281 1 is_stmt 1 view -0
 489              		.cfi_startproc
 490              		@ args = 0, pretend = 0, frame = 0
 491              		@ frame_needed = 0, uses_anonymous_args = 0
 492              		@ link register save eliminated.
 282:Core/Src/pwm.c ****     /* Resolution : 0.1[%] */
 283:Core/Src/pwm.c ****     PWM_TIM_MODULE_HEATER-> PWM_TIM_CH_HEATER = duty;
 493              		.loc 1 283 5 view .LVU150
 494              		.loc 1 283 47 is_stmt 0 view .LVU151
 495 0000 014B     		ldr	r3, .L30
 496 0002 5863     		str	r0, [r3, #52]
 284:Core/Src/pwm.c **** }
 497              		.loc 1 284 1 view .LVU152
 498              		@ sp needed
 499 0004 7047     		bx	lr
ARM GAS  C:\Users\jisu8\AppData\Local\Temp\ccfVxx9F.s 			page 17


 500              	.L31:
 501 0006 C046     		.align	2
 502              	.L30:
 503 0008 00040040 		.word	1073742848
 504              		.cfi_endproc
 505              	.LFE44:
 507              		.section	.text.Pwm_Servo_Set_Duty,"ax",%progbits
 508              		.align	1
 509              		.syntax unified
 510              		.code	16
 511              		.thumb_func
 513              	Pwm_Servo_Set_Duty:
 514              	.LVL2:
 515              	.LFB45:
 285:Core/Src/pwm.c **** 
 286:Core/Src/pwm.c **** static void Pwm_Servo_Set_Duty(uint16 duty)
 287:Core/Src/pwm.c **** {
 516              		.loc 1 287 1 is_stmt 1 view -0
 517              		.cfi_startproc
 518              		@ args = 0, pretend = 0, frame = 0
 519              		@ frame_needed = 0, uses_anonymous_args = 0
 520              		@ link register save eliminated.
 288:Core/Src/pwm.c ****     /* Resolution : 0.1[%] */
 289:Core/Src/pwm.c ****     PWM_TIM_MODULE_SERVO-> PWM_TIM_CH_SERVO = duty;
 521              		.loc 1 289 5 view .LVU154
 522              		.loc 1 289 45 is_stmt 0 view .LVU155
 523 0000 014B     		ldr	r3, .L33
 524 0002 D863     		str	r0, [r3, #60]
 290:Core/Src/pwm.c **** }
 525              		.loc 1 290 1 view .LVU156
 526              		@ sp needed
 527 0004 7047     		bx	lr
 528              	.L34:
 529 0006 C046     		.align	2
 530              	.L33:
 531 0008 002C0140 		.word	1073818624
 532              		.cfi_endproc
 533              	.LFE45:
 535              		.section	.text.Pwm_Fan_Set_Duty,"ax",%progbits
 536              		.align	1
 537              		.syntax unified
 538              		.code	16
 539              		.thumb_func
 541              	Pwm_Fan_Set_Duty:
 542              	.LVL3:
 543              	.LFB46:
 291:Core/Src/pwm.c **** 
 292:Core/Src/pwm.c **** static void Pwm_Fan_Set_Duty(uint16 duty)
 293:Core/Src/pwm.c **** {
 544              		.loc 1 293 1 is_stmt 1 view -0
 545              		.cfi_startproc
 546              		@ args = 0, pretend = 0, frame = 0
 547              		@ frame_needed = 0, uses_anonymous_args = 0
 548              		@ link register save eliminated.
 294:Core/Src/pwm.c ****     /* Resolution : 0.1[%] */
 295:Core/Src/pwm.c ****     PWM_TIM_MIDULE_FAN-> PWM_TIM_CH_FAN = duty;
 549              		.loc 1 295 5 view .LVU158
ARM GAS  C:\Users\jisu8\AppData\Local\Temp\ccfVxx9F.s 			page 18


 550              		.loc 1 295 41 is_stmt 0 view .LVU159
 551 0000 014B     		ldr	r3, .L36
 552 0002 5863     		str	r0, [r3, #52]
 296:Core/Src/pwm.c **** }...
 553              		.loc 1 296 1 view .LVU160
 554              		@ sp needed
 555 0004 7047     		bx	lr
 556              	.L37:
 557 0006 C046     		.align	2
 558              	.L36:
 559 0008 002C0140 		.word	1073818624
 560              		.cfi_endproc
 561              	.LFE46:
 563              		.section	.text.Pwm_Control,"ax",%progbits
 564              		.align	1
 565              		.syntax unified
 566              		.code	16
 567              		.thumb_func
 569              	Pwm_Control:
 570              	.LFB42:
 185:Core/Src/pwm.c **** {
 571              		.loc 1 185 1 is_stmt 1 view -0
 572              		.cfi_startproc
 573              		@ args = 0, pretend = 0, frame = 0
 574              		@ frame_needed = 0, uses_anonymous_args = 0
 575 0000 10B5     		push	{r4, lr}
 576              	.LCFI0:
 577              		.cfi_def_cfa_offset 8
 578              		.cfi_offset 4, -8
 579              		.cfi_offset 14, -4
 186:Core/Src/pwm.c ****     sint16 tempLoc;
 580              		.loc 1 186 5 view .LVU162
 187:Core/Src/pwm.c ****     sint16 TrgTempLoc;
 581              		.loc 1 187 5 view .LVU163
 188:Core/Src/pwm.c ****     static uint8 first_status;
 582              		.loc 1 188 5 view .LVU164
 189:Core/Src/pwm.c ****     if(first_target_flag == PWM_SUBMODE_TARGET_ON)
 583              		.loc 1 189 5 view .LVU165
 189:Core/Src/pwm.c ****     if(first_target_flag == PWM_SUBMODE_TARGET_ON)
 584              		.loc 1 189 26 is_stmt 0 view .LVU166
 585 0002 544B     		ldr	r3, .L59
 586 0004 1B78     		ldrb	r3, [r3]
 189:Core/Src/pwm.c ****     if(first_target_flag == PWM_SUBMODE_TARGET_ON)
 587              		.loc 1 189 7 view .LVU167
 588 0006 012B     		cmp	r3, #1
 589 0008 00D1     		bne	.LCB478
 590 000a 6EE0     		b	.L53	@long jump
 591              	.LCB478:
 592              	.L39:
 194:Core/Src/pwm.c ****     tempLoc = Temp_Adc_TP;
 593              		.loc 1 194 5 is_stmt 1 view .LVU168
 194:Core/Src/pwm.c ****     tempLoc = Temp_Adc_TP;
 594              		.loc 1 194 13 is_stmt 0 view .LVU169
 595 000c 524B     		ldr	r3, .L59+4
 596 000e 0022     		movs	r2, #0
 597 0010 9B5E     		ldrsh	r3, [r3, r2]
 598              	.LVL4:
ARM GAS  C:\Users\jisu8\AppData\Local\Temp\ccfVxx9F.s 			page 19


 195:Core/Src/pwm.c ****     if((Target_Run_Time>0)&&(tempLoc>(Target_Run_Temp-5))&&(tempLoc<(Target_Run_Temp+5)))
 599              		.loc 1 195 5 is_stmt 1 view .LVU170
 195:Core/Src/pwm.c ****     if((Target_Run_Time>0)&&(tempLoc>(Target_Run_Temp-5))&&(tempLoc<(Target_Run_Temp+5)))
 600              		.loc 1 195 24 is_stmt 0 view .LVU171
 601 0012 524A     		ldr	r2, .L59+8
 602 0014 1268     		ldr	r2, [r2]
 195:Core/Src/pwm.c ****     if((Target_Run_Time>0)&&(tempLoc>(Target_Run_Temp-5))&&(tempLoc<(Target_Run_Temp+5)))
 603              		.loc 1 195 7 view .LVU172
 604 0016 002A     		cmp	r2, #0
 605 0018 0BDD     		ble	.L40
 195:Core/Src/pwm.c ****     if((Target_Run_Time>0)&&(tempLoc>(Target_Run_Temp-5))&&(tempLoc<(Target_Run_Temp+5)))
 606              		.loc 1 195 37 discriminator 1 view .LVU173
 607 001a 5149     		ldr	r1, .L59+12
 608 001c 0020     		movs	r0, #0
 609 001e 095E     		ldrsh	r1, [r1, r0]
 610 0020 081F     		subs	r0, r1, #4
 195:Core/Src/pwm.c ****     if((Target_Run_Time>0)&&(tempLoc>(Target_Run_Temp-5))&&(tempLoc<(Target_Run_Temp+5)))
 611              		.loc 1 195 27 discriminator 1 view .LVU174
 612 0022 9842     		cmp	r0, r3
 613 0024 05DC     		bgt	.L40
 195:Core/Src/pwm.c ****     if((Target_Run_Time>0)&&(tempLoc>(Target_Run_Temp-5))&&(tempLoc<(Target_Run_Temp+5)))
 614              		.loc 1 195 68 discriminator 2 view .LVU175
 615 0026 0431     		adds	r1, r1, #4
 195:Core/Src/pwm.c ****     if((Target_Run_Time>0)&&(tempLoc>(Target_Run_Temp-5))&&(tempLoc<(Target_Run_Temp+5)))
 616              		.loc 1 195 58 discriminator 2 view .LVU176
 617 0028 8B42     		cmp	r3, r1
 618 002a 02DC     		bgt	.L40
 197:Core/Src/pwm.c ****         first_status = 1;
 619              		.loc 1 197 9 is_stmt 1 view .LVU177
 197:Core/Src/pwm.c ****         first_status = 1;
 620              		.loc 1 197 22 is_stmt 0 view .LVU178
 621 002c 4D49     		ldr	r1, .L59+16
 622 002e 0120     		movs	r0, #1
 623 0030 0870     		strb	r0, [r1]
 624              	.L40:
 199:Core/Src/pwm.c ****     TrgTempLoc = Target_Run_Temp;
 625              		.loc 1 199 5 is_stmt 1 view .LVU179
 199:Core/Src/pwm.c ****     TrgTempLoc = Target_Run_Temp;
 626              		.loc 1 199 16 is_stmt 0 view .LVU180
 627 0032 4B49     		ldr	r1, .L59+12
 628 0034 0020     		movs	r0, #0
 629 0036 095E     		ldrsh	r1, [r1, r0]
 630              	.LVL5:
 201:Core/Src/pwm.c ****     if(first_status == 1)
 631              		.loc 1 201 5 is_stmt 1 view .LVU181
 201:Core/Src/pwm.c ****     if(first_status == 1)
 632              		.loc 1 201 21 is_stmt 0 view .LVU182
 633 0038 4A48     		ldr	r0, .L59+16
 634 003a 0078     		ldrb	r0, [r0]
 201:Core/Src/pwm.c ****     if(first_status == 1)
 635              		.loc 1 201 7 view .LVU183
 636 003c 0128     		cmp	r0, #1
 637 003e 5AD0     		beq	.L54
 638              	.L41:
 210:Core/Src/pwm.c ****     if(first_status == 2)
 639              		.loc 1 210 5 is_stmt 1 view .LVU184
 210:Core/Src/pwm.c ****     if(first_status == 2)
ARM GAS  C:\Users\jisu8\AppData\Local\Temp\ccfVxx9F.s 			page 20


 640              		.loc 1 210 21 is_stmt 0 view .LVU185
 641 0040 484A     		ldr	r2, .L59+16
 642 0042 1278     		ldrb	r2, [r2]
 210:Core/Src/pwm.c ****     if(first_status == 2)
 643              		.loc 1 210 7 view .LVU186
 644 0044 022A     		cmp	r2, #2
 645 0046 62D0     		beq	.L55
 646              	.L42:
 215:Core/Src/pwm.c ****     if((TrgTempLoc - tempLoc)>0)
 647              		.loc 1 215 5 is_stmt 1 view .LVU187
 215:Core/Src/pwm.c ****     if((TrgTempLoc - tempLoc)>0)
 648              		.loc 1 215 20 is_stmt 0 view .LVU188
 649 0048 CB1A     		subs	r3, r1, r3
 650              	.LVL6:
 215:Core/Src/pwm.c ****     if((TrgTempLoc - tempLoc)>0)
 651              		.loc 1 215 7 view .LVU189
 652 004a 002B     		cmp	r3, #0
 653 004c 63DD     		ble	.L43
 217:Core/Src/pwm.c ****         Pwm_Duty_Heater++;
 654              		.loc 1 217 9 is_stmt 1 view .LVU190
 217:Core/Src/pwm.c ****         Pwm_Duty_Heater++;
 655              		.loc 1 217 24 is_stmt 0 view .LVU191
 656 004e 4649     		ldr	r1, .L59+20
 657              	.LVL7:
 217:Core/Src/pwm.c ****         Pwm_Duty_Heater++;
 658              		.loc 1 217 24 view .LVU192
 659 0050 0A88     		ldrh	r2, [r1]
 660 0052 0132     		adds	r2, r2, #1
 661 0054 0A80     		strh	r2, [r1]
 218:Core/Src/pwm.c ****         Pwm_Duty_Peltier--;
 662              		.loc 1 218 9 is_stmt 1 view .LVU193
 218:Core/Src/pwm.c ****         Pwm_Duty_Peltier--;
 663              		.loc 1 218 25 is_stmt 0 view .LVU194
 664 0056 4549     		ldr	r1, .L59+24
 665 0058 0A88     		ldrh	r2, [r1]
 666 005a 013A     		subs	r2, r2, #1
 667 005c 0A80     		strh	r2, [r1]
 219:Core/Src/pwm.c ****         Pwm_Led_Mode = PWM_LED_MODE_HEATING;
 668              		.loc 1 219 9 is_stmt 1 view .LVU195
 219:Core/Src/pwm.c ****         Pwm_Led_Mode = PWM_LED_MODE_HEATING;
 669              		.loc 1 219 22 is_stmt 0 view .LVU196
 670 005e 444A     		ldr	r2, .L59+28
 671 0060 0221     		movs	r1, #2
 672 0062 1170     		strb	r1, [r2]
 673              	.L44:
 228:Core/Src/pwm.c ****     if((TrgTempLoc - tempLoc)>=1)
 674              		.loc 1 228 5 is_stmt 1 view .LVU197
 228:Core/Src/pwm.c ****     if((TrgTempLoc - tempLoc)>=1)
 675              		.loc 1 228 7 is_stmt 0 view .LVU198
 676 0064 002B     		cmp	r3, #0
 677 0066 62DD     		ble	.L45
 230:Core/Src/pwm.c ****         Pwm_Duty_Fan--;
 678              		.loc 1 230 9 is_stmt 1 view .LVU199
 230:Core/Src/pwm.c ****         Pwm_Duty_Fan--;
 679              		.loc 1 230 21 is_stmt 0 view .LVU200
 680 0068 424A     		ldr	r2, .L59+32
 681 006a 1388     		ldrh	r3, [r2]
ARM GAS  C:\Users\jisu8\AppData\Local\Temp\ccfVxx9F.s 			page 21


 682 006c 013B     		subs	r3, r3, #1
 683 006e 1380     		strh	r3, [r2]
 684              	.L46:
 240:Core/Src/pwm.c ****     }
 685              		.loc 1 240 5 is_stmt 1 view .LVU201
 242:Core/Src/pwm.c ****     if(Pwm_Duty_Heater >= PWM_DUTY_MAX)
 686              		.loc 1 242 5 view .LVU202
 242:Core/Src/pwm.c ****     if(Pwm_Duty_Heater >= PWM_DUTY_MAX)
 687              		.loc 1 242 24 is_stmt 0 view .LVU203
 688 0070 3D4B     		ldr	r3, .L59+20
 689 0072 0022     		movs	r2, #0
 690 0074 9A5E     		ldrsh	r2, [r3, r2]
 242:Core/Src/pwm.c ****     if(Pwm_Duty_Heater >= PWM_DUTY_MAX)
 691              		.loc 1 242 7 view .LVU204
 692 0076 FA23     		movs	r3, #250
 693 0078 9B00     		lsls	r3, r3, #2
 694 007a 9A42     		cmp	r2, r3
 695 007c 03DB     		blt	.L47
 244:Core/Src/pwm.c ****         Pwm_Duty_Heater = PWM_DUTY_MAX;
 696              		.loc 1 244 9 is_stmt 1 view .LVU205
 244:Core/Src/pwm.c ****         Pwm_Duty_Heater = PWM_DUTY_MAX;
 697              		.loc 1 244 25 is_stmt 0 view .LVU206
 698 007e 3A4B     		ldr	r3, .L59+20
 699 0080 FA22     		movs	r2, #250
 700 0082 9200     		lsls	r2, r2, #2
 701 0084 1A80     		strh	r2, [r3]
 702              	.L47:
 246:Core/Src/pwm.c ****     if(Pwm_Duty_Heater <= PWM_DUTY_MIN)
 703              		.loc 1 246 5 is_stmt 1 view .LVU207
 246:Core/Src/pwm.c ****     if(Pwm_Duty_Heater <= PWM_DUTY_MIN)
 704              		.loc 1 246 24 is_stmt 0 view .LVU208
 705 0086 384B     		ldr	r3, .L59+20
 706 0088 0022     		movs	r2, #0
 707 008a 9B5E     		ldrsh	r3, [r3, r2]
 246:Core/Src/pwm.c ****     if(Pwm_Duty_Heater <= PWM_DUTY_MIN)
 708              		.loc 1 246 7 view .LVU209
 709 008c 002B     		cmp	r3, #0
 710 008e 55DD     		ble	.L56
 711              	.L48:
 251:Core/Src/pwm.c ****     if(Pwm_Duty_Peltier >= PWM_DUTY_MAX)
 712              		.loc 1 251 5 is_stmt 1 view .LVU210
 251:Core/Src/pwm.c ****     if(Pwm_Duty_Peltier >= PWM_DUTY_MAX)
 713              		.loc 1 251 25 is_stmt 0 view .LVU211
 714 0090 364B     		ldr	r3, .L59+24
 715 0092 0022     		movs	r2, #0
 716 0094 9A5E     		ldrsh	r2, [r3, r2]
 251:Core/Src/pwm.c ****     if(Pwm_Duty_Peltier >= PWM_DUTY_MAX)
 717              		.loc 1 251 7 view .LVU212
 718 0096 FA23     		movs	r3, #250
 719 0098 9B00     		lsls	r3, r3, #2
 720 009a 9A42     		cmp	r2, r3
 721 009c 03DB     		blt	.L49
 253:Core/Src/pwm.c ****         Pwm_Duty_Peltier = PWM_DUTY_MAX;
 722              		.loc 1 253 9 is_stmt 1 view .LVU213
 253:Core/Src/pwm.c ****         Pwm_Duty_Peltier = PWM_DUTY_MAX;
 723              		.loc 1 253 26 is_stmt 0 view .LVU214
 724 009e 334B     		ldr	r3, .L59+24
ARM GAS  C:\Users\jisu8\AppData\Local\Temp\ccfVxx9F.s 			page 22


 725 00a0 FA22     		movs	r2, #250
 726 00a2 9200     		lsls	r2, r2, #2
 727 00a4 1A80     		strh	r2, [r3]
 728              	.L49:
 255:Core/Src/pwm.c ****     if(Pwm_Duty_Peltier <= PWM_DUTY_MIN)
 729              		.loc 1 255 5 is_stmt 1 view .LVU215
 255:Core/Src/pwm.c ****     if(Pwm_Duty_Peltier <= PWM_DUTY_MIN)
 730              		.loc 1 255 25 is_stmt 0 view .LVU216
 731 00a6 314B     		ldr	r3, .L59+24
 732 00a8 0022     		movs	r2, #0
 733 00aa 9B5E     		ldrsh	r3, [r3, r2]
 255:Core/Src/pwm.c ****     if(Pwm_Duty_Peltier <= PWM_DUTY_MIN)
 734              		.loc 1 255 7 view .LVU217
 735 00ac 002B     		cmp	r3, #0
 736 00ae 49DD     		ble	.L57
 737              	.L50:
 260:Core/Src/pwm.c ****     if(Pwm_Duty_Fan >= PWM_DUTY_MAX)
 738              		.loc 1 260 5 is_stmt 1 view .LVU218
 260:Core/Src/pwm.c ****     if(Pwm_Duty_Fan >= PWM_DUTY_MAX)
 739              		.loc 1 260 21 is_stmt 0 view .LVU219
 740 00b0 304B     		ldr	r3, .L59+32
 741 00b2 0022     		movs	r2, #0
 742 00b4 9A5E     		ldrsh	r2, [r3, r2]
 260:Core/Src/pwm.c ****     if(Pwm_Duty_Fan >= PWM_DUTY_MAX)
 743              		.loc 1 260 7 view .LVU220
 744 00b6 FA23     		movs	r3, #250
 745 00b8 9B00     		lsls	r3, r3, #2
 746 00ba 9A42     		cmp	r2, r3
 747 00bc 03DB     		blt	.L51
 262:Core/Src/pwm.c ****         Pwm_Duty_Fan = PWM_DUTY_MAX;
 748              		.loc 1 262 9 is_stmt 1 view .LVU221
 262:Core/Src/pwm.c ****         Pwm_Duty_Fan = PWM_DUTY_MAX;
 749              		.loc 1 262 22 is_stmt 0 view .LVU222
 750 00be 2D4B     		ldr	r3, .L59+32
 751 00c0 FA22     		movs	r2, #250
 752 00c2 9200     		lsls	r2, r2, #2
 753 00c4 1A80     		strh	r2, [r3]
 754              	.L51:
 264:Core/Src/pwm.c ****     if(Pwm_Duty_Fan <= PWM_DUTY_MIN)
 755              		.loc 1 264 5 is_stmt 1 view .LVU223
 264:Core/Src/pwm.c ****     if(Pwm_Duty_Fan <= PWM_DUTY_MIN)
 756              		.loc 1 264 21 is_stmt 0 view .LVU224
 757 00c6 2B4B     		ldr	r3, .L59+32
 758 00c8 0022     		movs	r2, #0
 759 00ca 9B5E     		ldrsh	r3, [r3, r2]
 264:Core/Src/pwm.c ****     if(Pwm_Duty_Fan <= PWM_DUTY_MIN)
 760              		.loc 1 264 7 view .LVU225
 761 00cc 002B     		cmp	r3, #0
 762 00ce 3DDD     		ble	.L58
 763              	.L52:
 269:Core/Src/pwm.c ****     Pwm_Heater_Set_Duty(Pwm_Duty_Heater);
 764              		.loc 1 269 5 is_stmt 1 view .LVU226
 765 00d0 254B     		ldr	r3, .L59+20
 766 00d2 1888     		ldrh	r0, [r3]
 767 00d4 FFF7FEFF 		bl	Pwm_Heater_Set_Duty
 768              	.LVL8:
 270:Core/Src/pwm.c ****     Pwm_Peltier_Set_Duty(Pwm_Duty_Peltier);
ARM GAS  C:\Users\jisu8\AppData\Local\Temp\ccfVxx9F.s 			page 23


 769              		.loc 1 270 5 view .LVU227
 770 00d8 244B     		ldr	r3, .L59+24
 771 00da 1888     		ldrh	r0, [r3]
 772 00dc FFF7FEFF 		bl	Pwm_Peltier_Set_Duty
 773              	.LVL9:
 271:Core/Src/pwm.c ****     Pwm_Fan_Set_Duty(Pwm_Duty_Fan);
 774              		.loc 1 271 5 view .LVU228
 775 00e0 244B     		ldr	r3, .L59+32
 776 00e2 1888     		ldrh	r0, [r3]
 777 00e4 FFF7FEFF 		bl	Pwm_Fan_Set_Duty
 778              	.LVL10:
 272:Core/Src/pwm.c **** }
 779              		.loc 1 272 1 is_stmt 0 view .LVU229
 780              		@ sp needed
 781 00e8 10BD     		pop	{r4, pc}
 782              	.L53:
 191:Core/Src/pwm.c ****         first_status = 0;
 783              		.loc 1 191 9 is_stmt 1 view .LVU230
 191:Core/Src/pwm.c ****         first_status = 0;
 784              		.loc 1 191 22 is_stmt 0 view .LVU231
 785 00ea 0023     		movs	r3, #0
 786 00ec 1D4A     		ldr	r2, .L59+16
 787 00ee 1370     		strb	r3, [r2]
 192:Core/Src/pwm.c ****         first_target_flag = PWM_SUBMODE_TARGET_OFF;
 788              		.loc 1 192 9 is_stmt 1 view .LVU232
 192:Core/Src/pwm.c ****         first_target_flag = PWM_SUBMODE_TARGET_OFF;
 789              		.loc 1 192 27 is_stmt 0 view .LVU233
 790 00f0 184A     		ldr	r2, .L59
 791 00f2 1370     		strb	r3, [r2]
 792 00f4 8AE7     		b	.L39
 793              	.LVL11:
 794              	.L54:
 203:Core/Src/pwm.c ****         Target_Run_Time--;
 795              		.loc 1 203 9 is_stmt 1 view .LVU234
 203:Core/Src/pwm.c ****         Target_Run_Time--;
 796              		.loc 1 203 24 is_stmt 0 view .LVU235
 797 00f6 013A     		subs	r2, r2, #1
 798 00f8 1848     		ldr	r0, .L59+8
 799 00fa 0260     		str	r2, [r0]
 204:Core/Src/pwm.c ****         if(Target_Run_Time<=0)
 800              		.loc 1 204 9 is_stmt 1 view .LVU236
 204:Core/Src/pwm.c ****         if(Target_Run_Time<=0)
 801              		.loc 1 204 11 is_stmt 0 view .LVU237
 802 00fc 002A     		cmp	r2, #0
 803 00fe 9FDC     		bgt	.L41
 206:Core/Src/pwm.c ****             Target_Run_Time = 0;
 804              		.loc 1 206 13 is_stmt 1 view .LVU238
 206:Core/Src/pwm.c ****             Target_Run_Time = 0;
 805              		.loc 1 206 29 is_stmt 0 view .LVU239
 806 0100 0200     		movs	r2, r0
 807 0102 0020     		movs	r0, #0
 808 0104 1060     		str	r0, [r2]
 207:Core/Src/pwm.c ****             first_status = 2;
 809              		.loc 1 207 13 is_stmt 1 view .LVU240
 207:Core/Src/pwm.c ****             first_status = 2;
 810              		.loc 1 207 26 is_stmt 0 view .LVU241
 811 0106 174A     		ldr	r2, .L59+16
ARM GAS  C:\Users\jisu8\AppData\Local\Temp\ccfVxx9F.s 			page 24


 812 0108 0230     		adds	r0, r0, #2
 813 010a 1070     		strb	r0, [r2]
 814 010c 98E7     		b	.L41
 815              	.L55:
 212:Core/Src/pwm.c ****         TrgTempLoc = Target_Idle_Temp;
 816              		.loc 1 212 9 is_stmt 1 view .LVU242
 212:Core/Src/pwm.c ****         TrgTempLoc = Target_Idle_Temp;
 817              		.loc 1 212 20 is_stmt 0 view .LVU243
 818 010e 1A4A     		ldr	r2, .L59+36
 819 0110 0021     		movs	r1, #0
 820 0112 515E     		ldrsh	r1, [r2, r1]
 821              	.LVL12:
 212:Core/Src/pwm.c ****         TrgTempLoc = Target_Idle_Temp;
 822              		.loc 1 212 20 view .LVU244
 823 0114 98E7     		b	.L42
 824              	.LVL13:
 825              	.L43:
 223:Core/Src/pwm.c ****         Pwm_Duty_Heater--;
 826              		.loc 1 223 9 is_stmt 1 view .LVU245
 223:Core/Src/pwm.c ****         Pwm_Duty_Heater--;
 827              		.loc 1 223 24 is_stmt 0 view .LVU246
 828 0116 1449     		ldr	r1, .L59+20
 829              	.LVL14:
 223:Core/Src/pwm.c ****         Pwm_Duty_Heater--;
 830              		.loc 1 223 24 view .LVU247
 831 0118 0A88     		ldrh	r2, [r1]
 832 011a 013A     		subs	r2, r2, #1
 833 011c 0A80     		strh	r2, [r1]
 224:Core/Src/pwm.c ****         Pwm_Duty_Peltier++;
 834              		.loc 1 224 9 is_stmt 1 view .LVU248
 224:Core/Src/pwm.c ****         Pwm_Duty_Peltier++;
 835              		.loc 1 224 25 is_stmt 0 view .LVU249
 836 011e 1349     		ldr	r1, .L59+24
 837 0120 0A88     		ldrh	r2, [r1]
 838 0122 0132     		adds	r2, r2, #1
 839 0124 0A80     		strh	r2, [r1]
 225:Core/Src/pwm.c ****         Pwm_Led_Mode = PWM_LED_MODE_COOLING;
 840              		.loc 1 225 9 is_stmt 1 view .LVU250
 225:Core/Src/pwm.c ****         Pwm_Led_Mode = PWM_LED_MODE_COOLING;
 841              		.loc 1 225 22 is_stmt 0 view .LVU251
 842 0126 124A     		ldr	r2, .L59+28
 843 0128 0121     		movs	r1, #1
 844 012a 1170     		strb	r1, [r2]
 845 012c 9AE7     		b	.L44
 846              	.L45:
 232:Core/Src/pwm.c ****     else if((TrgTempLoc - tempLoc)<= -1)
 847              		.loc 1 232 10 is_stmt 1 view .LVU252
 232:Core/Src/pwm.c ****     else if((TrgTempLoc - tempLoc)<= -1)
 848              		.loc 1 232 12 is_stmt 0 view .LVU253
 849 012e 002B     		cmp	r3, #0
 850 0130 9EDA     		bge	.L46
 235:Core/Src/pwm.c ****         Pwm_Duty_Fan++;
 851              		.loc 1 235 9 is_stmt 1 view .LVU254
 235:Core/Src/pwm.c ****         Pwm_Duty_Fan++;
 852              		.loc 1 235 21 is_stmt 0 view .LVU255
 853 0132 104A     		ldr	r2, .L59+32
 854 0134 1388     		ldrh	r3, [r2]
ARM GAS  C:\Users\jisu8\AppData\Local\Temp\ccfVxx9F.s 			page 25


 855 0136 0133     		adds	r3, r3, #1
 856 0138 1380     		strh	r3, [r2]
 857 013a 99E7     		b	.L46
 858              	.L56:
 248:Core/Src/pwm.c ****         Pwm_Duty_Heater = PWM_DUTY_MIN;
 859              		.loc 1 248 9 is_stmt 1 view .LVU256
 248:Core/Src/pwm.c ****         Pwm_Duty_Heater = PWM_DUTY_MIN;
 860              		.loc 1 248 25 is_stmt 0 view .LVU257
 861 013c 0A4B     		ldr	r3, .L59+20
 862 013e 0022     		movs	r2, #0
 863 0140 1A80     		strh	r2, [r3]
 864 0142 A5E7     		b	.L48
 865              	.L57:
 257:Core/Src/pwm.c ****         Pwm_Duty_Peltier = PWM_DUTY_MIN;
 866              		.loc 1 257 9 is_stmt 1 view .LVU258
 257:Core/Src/pwm.c ****         Pwm_Duty_Peltier = PWM_DUTY_MIN;
 867              		.loc 1 257 26 is_stmt 0 view .LVU259
 868 0144 094B     		ldr	r3, .L59+24
 869 0146 0022     		movs	r2, #0
 870 0148 1A80     		strh	r2, [r3]
 871 014a B1E7     		b	.L50
 872              	.L58:
 266:Core/Src/pwm.c ****         Pwm_Duty_Fan = PWM_DUTY_MIN;
 873              		.loc 1 266 9 is_stmt 1 view .LVU260
 266:Core/Src/pwm.c ****         Pwm_Duty_Fan = PWM_DUTY_MIN;
 874              		.loc 1 266 22 is_stmt 0 view .LVU261
 875 014c 094B     		ldr	r3, .L59+32
 876 014e 0022     		movs	r2, #0
 877 0150 1A80     		strh	r2, [r3]
 878 0152 BDE7     		b	.L52
 879              	.L60:
 880              		.align	2
 881              	.L59:
 882 0154 00000000 		.word	.LANCHOR3
 883 0158 00000000 		.word	Temp_Adc_TP
 884 015c 00000000 		.word	.LANCHOR1
 885 0160 00000000 		.word	.LANCHOR0
 886 0164 00000000 		.word	.LANCHOR4
 887 0168 00000000 		.word	.LANCHOR5
 888 016c 00000000 		.word	.LANCHOR6
 889 0170 00000000 		.word	.LANCHOR7
 890 0174 00000000 		.word	.LANCHOR8
 891 0178 00000000 		.word	.LANCHOR2
 892              		.cfi_endproc
 893              	.LFE42:
 895              		.section	.text.Pwm_Output,"ax",%progbits
 896              		.align	1
 897              		.global	Pwm_Output
 898              		.syntax unified
 899              		.code	16
 900              		.thumb_func
 902              	Pwm_Output:
 903              	.LFB40:
  27:Core/Src/pwm.c **** {
 904              		.loc 1 27 1 is_stmt 1 view -0
 905              		.cfi_startproc
 906              		@ args = 0, pretend = 0, frame = 0
ARM GAS  C:\Users\jisu8\AppData\Local\Temp\ccfVxx9F.s 			page 26


 907              		@ frame_needed = 0, uses_anonymous_args = 0
 908 0000 10B5     		push	{r4, lr}
 909              	.LCFI1:
 910              		.cfi_def_cfa_offset 8
 911              		.cfi_offset 4, -8
 912              		.cfi_offset 14, -4
  28:Core/Src/pwm.c ****     if(((switch_mode == SWITCH_MODE_RUN)&&(cup_in == 1))||
 913              		.loc 1 28 5 view .LVU263
  28:Core/Src/pwm.c ****     if(((switch_mode == SWITCH_MODE_RUN)&&(cup_in == 1))||
 914              		.loc 1 28 22 is_stmt 0 view .LVU264
 915 0002 364B     		ldr	r3, .L71
 916 0004 1B78     		ldrb	r3, [r3]
  28:Core/Src/pwm.c ****     if(((switch_mode == SWITCH_MODE_RUN)&&(cup_in == 1))||
 917              		.loc 1 28 7 view .LVU265
 918 0006 032B     		cmp	r3, #3
 919 0008 09D1     		bne	.L62
  28:Core/Src/pwm.c ****     if(((switch_mode == SWITCH_MODE_RUN)&&(cup_in == 1))||
 920              		.loc 1 28 51 discriminator 1 view .LVU266
 921 000a 354B     		ldr	r3, .L71+4
 922 000c 1B78     		ldrb	r3, [r3]
  28:Core/Src/pwm.c ****     if(((switch_mode == SWITCH_MODE_RUN)&&(cup_in == 1))||
 923              		.loc 1 28 57 discriminator 1 view .LVU267
 924 000e 012B     		cmp	r3, #1
 925 0010 30D0     		beq	.L63
  29:Core/Src/pwm.c ****        (switch_mode == SWITCH_MODE_RUN)&&((switch_submode == SWITCH_SUB_MODE_18)||(switch_submode =
 926              		.loc 1 29 81 discriminator 2 view .LVU268
 927 0012 344B     		ldr	r3, .L71+8
 928 0014 1B78     		ldrb	r3, [r3]
 929 0016 123B     		subs	r3, r3, #18
 930 0018 DBB2     		uxtb	r3, r3
  28:Core/Src/pwm.c ****     if(((switch_mode == SWITCH_MODE_RUN)&&(cup_in == 1))||
 931              		.loc 1 28 57 discriminator 2 view .LVU269
 932 001a 012B     		cmp	r3, #1
 933 001c 2AD9     		bls	.L63
 934              	.L62:
  39:Core/Src/pwm.c ****         first_target_flag = PWM_SUBMODE_TARGET_ON;
 935              		.loc 1 39 9 is_stmt 1 view .LVU270
  39:Core/Src/pwm.c ****         first_target_flag = PWM_SUBMODE_TARGET_ON;
 936              		.loc 1 39 27 is_stmt 0 view .LVU271
 937 001e 324B     		ldr	r3, .L71+12
 938 0020 0122     		movs	r2, #1
 939 0022 1A70     		strb	r2, [r3]
  40:Core/Src/pwm.c ****         Target_Run_Temp = 0;
 940              		.loc 1 40 9 is_stmt 1 view .LVU272
  40:Core/Src/pwm.c ****         Target_Run_Temp = 0;
 941              		.loc 1 40 25 is_stmt 0 view .LVU273
 942 0024 0023     		movs	r3, #0
 943 0026 314A     		ldr	r2, .L71+16
 944 0028 1380     		strh	r3, [r2]
  41:Core/Src/pwm.c ****         Target_Run_Time = 0;
 945              		.loc 1 41 9 is_stmt 1 view .LVU274
  41:Core/Src/pwm.c ****         Target_Run_Time = 0;
 946              		.loc 1 41 25 is_stmt 0 view .LVU275
 947 002a 314A     		ldr	r2, .L71+20
 948 002c 1360     		str	r3, [r2]
  42:Core/Src/pwm.c ****         Target_Idle_Temp = 0;
 949              		.loc 1 42 9 is_stmt 1 view .LVU276
ARM GAS  C:\Users\jisu8\AppData\Local\Temp\ccfVxx9F.s 			page 27


  42:Core/Src/pwm.c ****         Target_Idle_Temp = 0;
 950              		.loc 1 42 26 is_stmt 0 view .LVU277
 951 002e 314A     		ldr	r2, .L71+24
 952 0030 1380     		strh	r3, [r2]
  43:Core/Src/pwm.c ****         Pwm_Duty_Peltier = 0;
 953              		.loc 1 43 9 is_stmt 1 view .LVU278
  43:Core/Src/pwm.c ****         Pwm_Duty_Peltier = 0;
 954              		.loc 1 43 26 is_stmt 0 view .LVU279
 955 0032 314A     		ldr	r2, .L71+28
 956 0034 1380     		strh	r3, [r2]
  44:Core/Src/pwm.c ****         Pwm_Duty_Heater = 0;
 957              		.loc 1 44 9 is_stmt 1 view .LVU280
  44:Core/Src/pwm.c ****         Pwm_Duty_Heater = 0;
 958              		.loc 1 44 25 is_stmt 0 view .LVU281
 959 0036 314A     		ldr	r2, .L71+32
 960 0038 1380     		strh	r3, [r2]
  45:Core/Src/pwm.c ****         Pwm_Duty_Fan = 0;
 961              		.loc 1 45 9 is_stmt 1 view .LVU282
  45:Core/Src/pwm.c ****         Pwm_Duty_Fan = 0;
 962              		.loc 1 45 22 is_stmt 0 view .LVU283
 963 003a 314A     		ldr	r2, .L71+36
 964 003c 1380     		strh	r3, [r2]
  46:Core/Src/pwm.c ****         Pwm_Peltier_Set_Duty(0);
 965              		.loc 1 46 9 is_stmt 1 view .LVU284
 966 003e 0020     		movs	r0, #0
 967 0040 FFF7FEFF 		bl	Pwm_Peltier_Set_Duty
 968              	.LVL15:
  47:Core/Src/pwm.c ****         Pwm_Heater_Set_Duty(0);
 969              		.loc 1 47 9 view .LVU285
 970 0044 0020     		movs	r0, #0
 971 0046 FFF7FEFF 		bl	Pwm_Heater_Set_Duty
 972              	.LVL16:
  48:Core/Src/pwm.c ****         Pwm_Fan_Set_Duty(0);        
 973              		.loc 1 48 9 view .LVU286
 974 004a 0020     		movs	r0, #0
 975 004c FFF7FEFF 		bl	Pwm_Fan_Set_Duty
 976              	.LVL17:
  49:Core/Src/pwm.c ****         Pwm_Led_Mode = PWM_LED_MODE_NONE;
 977              		.loc 1 49 9 view .LVU287
  49:Core/Src/pwm.c ****         Pwm_Led_Mode = PWM_LED_MODE_NONE;
 978              		.loc 1 49 22 is_stmt 0 view .LVU288
 979 0050 0022     		movs	r2, #0
 980 0052 2C4B     		ldr	r3, .L71+40
 981 0054 1A70     		strb	r2, [r3]
 982              	.L65:
  52:Core/Src/pwm.c ****     if((switch4_mode == 1)&&(Pwm_Servo_status == PWM_SERVO_STATUS_RUN))
 983              		.loc 1 52 5 is_stmt 1 view .LVU289
  52:Core/Src/pwm.c ****     if((switch4_mode == 1)&&(Pwm_Servo_status == PWM_SERVO_STATUS_RUN))
 984              		.loc 1 52 22 is_stmt 0 view .LVU290
 985 0056 2C4B     		ldr	r3, .L71+44
 986 0058 1B78     		ldrb	r3, [r3]
  52:Core/Src/pwm.c ****     if((switch4_mode == 1)&&(Pwm_Servo_status == PWM_SERVO_STATUS_RUN))
 987              		.loc 1 52 7 view .LVU291
 988 005a 012B     		cmp	r3, #1
 989 005c 14D0     		beq	.L68
 990              	.L66:
  63:Core/Src/pwm.c ****     if((switch4_mode == 0)&&(Pwm_Servo_status == PWM_SERVO_STATUS_RUN))
ARM GAS  C:\Users\jisu8\AppData\Local\Temp\ccfVxx9F.s 			page 28


 991              		.loc 1 63 5 is_stmt 1 view .LVU292
  63:Core/Src/pwm.c ****     if((switch4_mode == 0)&&(Pwm_Servo_status == PWM_SERVO_STATUS_RUN))
 992              		.loc 1 63 7 is_stmt 0 view .LVU293
 993 005e 002B     		cmp	r3, #0
 994 0060 03D1     		bne	.L67
  63:Core/Src/pwm.c ****     if((switch4_mode == 0)&&(Pwm_Servo_status == PWM_SERVO_STATUS_RUN))
 995              		.loc 1 63 47 discriminator 1 view .LVU294
 996 0062 2A4B     		ldr	r3, .L71+48
 997 0064 1B78     		ldrb	r3, [r3]
  63:Core/Src/pwm.c ****     if((switch4_mode == 0)&&(Pwm_Servo_status == PWM_SERVO_STATUS_RUN))
 998              		.loc 1 63 27 discriminator 1 view .LVU295
 999 0066 012B     		cmp	r3, #1
 1000 0068 25D0     		beq	.L69
 1001              	.L67:
  75:Core/Src/pwm.c ****     Pwm_Servo_Set_Duty(Pwm_Duty_Servo);
 1002              		.loc 1 75 5 is_stmt 1 view .LVU296
 1003 006a 294B     		ldr	r3, .L71+52
 1004 006c 1888     		ldrh	r0, [r3]
 1005 006e FFF7FEFF 		bl	Pwm_Servo_Set_Duty
 1006              	.LVL18:
  76:Core/Src/pwm.c ****     return;
 1007              		.loc 1 76 5 view .LVU297
  77:Core/Src/pwm.c **** }
 1008              		.loc 1 77 1 is_stmt 0 view .LVU298
 1009              		@ sp needed
 1010 0072 10BD     		pop	{r4, pc}
 1011              	.L63:
  31:Core/Src/pwm.c ****         if(PWM_SUBMODE_TARGET_ON == first_target_flag)
 1012              		.loc 1 31 9 is_stmt 1 view .LVU299
  31:Core/Src/pwm.c ****         if(PWM_SUBMODE_TARGET_ON == first_target_flag)
 1013              		.loc 1 31 34 is_stmt 0 view .LVU300
 1014 0074 1C4B     		ldr	r3, .L71+12
 1015 0076 1B78     		ldrb	r3, [r3]
  31:Core/Src/pwm.c ****         if(PWM_SUBMODE_TARGET_ON == first_target_flag)
 1016              		.loc 1 31 11 view .LVU301
 1017 0078 012B     		cmp	r3, #1
 1018 007a 02D0     		beq	.L70
 1019              	.L64:
  35:Core/Src/pwm.c ****         Pwm_Control();
 1020              		.loc 1 35 9 is_stmt 1 view .LVU302
 1021 007c FFF7FEFF 		bl	Pwm_Control
 1022              	.LVL19:
 1023 0080 E9E7     		b	.L65
 1024              	.L70:
  33:Core/Src/pwm.c ****             Pwm_SubMode_Target_Set();
 1025              		.loc 1 33 13 view .LVU303
 1026 0082 FFF7FEFF 		bl	Pwm_SubMode_Target_Set
 1027              	.LVL20:
 1028 0086 F9E7     		b	.L64
 1029              	.L68:
  52:Core/Src/pwm.c ****     if((switch4_mode == 1)&&(Pwm_Servo_status == PWM_SERVO_STATUS_RUN))
 1030              		.loc 1 52 47 is_stmt 0 discriminator 1 view .LVU304
 1031 0088 204A     		ldr	r2, .L71+48
 1032 008a 1278     		ldrb	r2, [r2]
  52:Core/Src/pwm.c ****     if((switch4_mode == 1)&&(Pwm_Servo_status == PWM_SERVO_STATUS_RUN))
 1033              		.loc 1 52 27 discriminator 1 view .LVU305
 1034 008c 012A     		cmp	r2, #1
ARM GAS  C:\Users\jisu8\AppData\Local\Temp\ccfVxx9F.s 			page 29


 1035 008e E6D1     		bne	.L66
  54:Core/Src/pwm.c ****         Pwm_Duty_Servo = PWM_SERVO_180_DEGREE;
 1036              		.loc 1 54 9 is_stmt 1 view .LVU306
  54:Core/Src/pwm.c ****         Pwm_Duty_Servo = PWM_SERVO_180_DEGREE;
 1037              		.loc 1 54 24 is_stmt 0 view .LVU307
 1038 0090 1F4A     		ldr	r2, .L71+52
 1039 0092 7F21     		movs	r1, #127
 1040 0094 1180     		strh	r1, [r2]
  55:Core/Src/pwm.c ****         Servo_timer++;
 1041              		.loc 1 55 9 is_stmt 1 view .LVU308
  55:Core/Src/pwm.c ****         Servo_timer++;
 1042              		.loc 1 55 20 is_stmt 0 view .LVU309
 1043 0096 1F49     		ldr	r1, .L71+56
 1044 0098 0A88     		ldrh	r2, [r1]
 1045 009a 0132     		adds	r2, r2, #1
 1046 009c 92B2     		uxth	r2, r2
 1047 009e 0A80     		strh	r2, [r1]
  56:Core/Src/pwm.c ****         if(Servo_timer>=20)
 1048              		.loc 1 56 9 is_stmt 1 view .LVU310
  56:Core/Src/pwm.c ****         if(Servo_timer>=20)
 1049              		.loc 1 56 11 is_stmt 0 view .LVU311
 1050 00a0 132A     		cmp	r2, #19
 1051 00a2 DCD9     		bls	.L66
  58:Core/Src/pwm.c ****             Servo_timer = 20;
 1052              		.loc 1 58 13 is_stmt 1 view .LVU312
  58:Core/Src/pwm.c ****             Servo_timer = 20;
 1053              		.loc 1 58 25 is_stmt 0 view .LVU313
 1054 00a4 0A00     		movs	r2, r1
 1055 00a6 1421     		movs	r1, #20
 1056 00a8 1180     		strh	r1, [r2]
  59:Core/Src/pwm.c ****             Pwm_Servo_status = PWM_SERVO_STATUS_STOP;
 1057              		.loc 1 59 13 is_stmt 1 view .LVU314
  59:Core/Src/pwm.c ****             Pwm_Servo_status = PWM_SERVO_STATUS_STOP;
 1058              		.loc 1 59 30 is_stmt 0 view .LVU315
 1059 00aa 0022     		movs	r2, #0
 1060 00ac 1749     		ldr	r1, .L71+48
 1061 00ae 0A70     		strb	r2, [r1]
  60:Core/Src/pwm.c ****             Pwm_Duty_Servo = PWM_SERVO_OFF;
 1062              		.loc 1 60 13 is_stmt 1 view .LVU316
  60:Core/Src/pwm.c ****             Pwm_Duty_Servo = PWM_SERVO_OFF;
 1063              		.loc 1 60 28 is_stmt 0 view .LVU317
 1064 00b0 1749     		ldr	r1, .L71+52
 1065 00b2 0A80     		strh	r2, [r1]
 1066 00b4 D3E7     		b	.L66
 1067              	.L69:
  65:Core/Src/pwm.c ****         Pwm_Duty_Servo = PWM_SERVO_0_DEGREE;
 1068              		.loc 1 65 9 is_stmt 1 view .LVU318
  65:Core/Src/pwm.c ****         Pwm_Duty_Servo = PWM_SERVO_0_DEGREE;
 1069              		.loc 1 65 24 is_stmt 0 view .LVU319
 1070 00b6 164B     		ldr	r3, .L71+52
 1071 00b8 2022     		movs	r2, #32
 1072 00ba 1A80     		strh	r2, [r3]
  66:Core/Src/pwm.c ****         Servo_timer++;
 1073              		.loc 1 66 9 is_stmt 1 view .LVU320
  66:Core/Src/pwm.c ****         Servo_timer++;
 1074              		.loc 1 66 20 is_stmt 0 view .LVU321
 1075 00bc 154A     		ldr	r2, .L71+56
ARM GAS  C:\Users\jisu8\AppData\Local\Temp\ccfVxx9F.s 			page 30


 1076 00be 1388     		ldrh	r3, [r2]
 1077 00c0 0133     		adds	r3, r3, #1
 1078 00c2 9BB2     		uxth	r3, r3
 1079 00c4 1380     		strh	r3, [r2]
  67:Core/Src/pwm.c ****         if(Servo_timer>=20)
 1080              		.loc 1 67 9 is_stmt 1 view .LVU322
  67:Core/Src/pwm.c ****         if(Servo_timer>=20)
 1081              		.loc 1 67 11 is_stmt 0 view .LVU323
 1082 00c6 132B     		cmp	r3, #19
 1083 00c8 CFD9     		bls	.L67
  69:Core/Src/pwm.c ****             Servo_timer = 20;
 1084              		.loc 1 69 13 is_stmt 1 view .LVU324
  69:Core/Src/pwm.c ****             Servo_timer = 20;
 1085              		.loc 1 69 25 is_stmt 0 view .LVU325
 1086 00ca 1300     		movs	r3, r2
 1087 00cc 1422     		movs	r2, #20
 1088 00ce 1A80     		strh	r2, [r3]
  70:Core/Src/pwm.c ****             Pwm_Servo_status = PWM_SERVO_STATUS_STOP;
 1089              		.loc 1 70 13 is_stmt 1 view .LVU326
  70:Core/Src/pwm.c ****             Pwm_Servo_status = PWM_SERVO_STATUS_STOP;
 1090              		.loc 1 70 30 is_stmt 0 view .LVU327
 1091 00d0 0023     		movs	r3, #0
 1092 00d2 0E4A     		ldr	r2, .L71+48
 1093 00d4 1370     		strb	r3, [r2]
  71:Core/Src/pwm.c ****             Pwm_Duty_Servo = PWM_SERVO_OFF;
 1094              		.loc 1 71 13 is_stmt 1 view .LVU328
  71:Core/Src/pwm.c ****             Pwm_Duty_Servo = PWM_SERVO_OFF;
 1095              		.loc 1 71 28 is_stmt 0 view .LVU329
 1096 00d6 0E4A     		ldr	r2, .L71+52
 1097 00d8 1380     		strh	r3, [r2]
 1098 00da C6E7     		b	.L67
 1099              	.L72:
 1100              		.align	2
 1101              	.L71:
 1102 00dc 00000000 		.word	switch_mode
 1103 00e0 00000000 		.word	cup_in
 1104 00e4 00000000 		.word	switch_submode
 1105 00e8 00000000 		.word	.LANCHOR3
 1106 00ec 00000000 		.word	.LANCHOR0
 1107 00f0 00000000 		.word	.LANCHOR1
 1108 00f4 00000000 		.word	.LANCHOR2
 1109 00f8 00000000 		.word	.LANCHOR6
 1110 00fc 00000000 		.word	.LANCHOR5
 1111 0100 00000000 		.word	.LANCHOR8
 1112 0104 00000000 		.word	.LANCHOR7
 1113 0108 00000000 		.word	switch4_mode
 1114 010c 00000000 		.word	.LANCHOR9
 1115 0110 00000000 		.word	.LANCHOR10
 1116 0114 00000000 		.word	.LANCHOR11
 1117              		.cfi_endproc
 1118              	.LFE40:
 1120              		.global	Servo_timer
 1121              		.global	first_target_flag
 1122              		.global	Target_Idle_Temp
 1123              		.global	Target_Run_Time
 1124              		.global	Target_Run_Temp
 1125              		.global	Pwm_Led_Mode
ARM GAS  C:\Users\jisu8\AppData\Local\Temp\ccfVxx9F.s 			page 31


 1126              		.global	Pwm_Servo_status
 1127              		.global	Pwm_Duty_Fan
 1128              		.global	Pwm_Duty_Servo
 1129              		.global	Pwm_Duty_Heater
 1130              		.global	Pwm_Duty_Peltier
 1131              		.section	.bss.Pwm_Duty_Fan,"aw",%nobits
 1132              		.align	1
 1133              		.set	.LANCHOR8,. + 0
 1136              	Pwm_Duty_Fan:
 1137 0000 0000     		.space	2
 1138              		.section	.bss.Pwm_Duty_Heater,"aw",%nobits
 1139              		.align	1
 1140              		.set	.LANCHOR5,. + 0
 1143              	Pwm_Duty_Heater:
 1144 0000 0000     		.space	2
 1145              		.section	.bss.Pwm_Duty_Peltier,"aw",%nobits
 1146              		.align	1
 1147              		.set	.LANCHOR6,. + 0
 1150              	Pwm_Duty_Peltier:
 1151 0000 0000     		.space	2
 1152              		.section	.bss.Pwm_Duty_Servo,"aw",%nobits
 1153              		.align	1
 1154              		.set	.LANCHOR10,. + 0
 1157              	Pwm_Duty_Servo:
 1158 0000 0000     		.space	2
 1159              		.section	.bss.Pwm_Led_Mode,"aw",%nobits
 1160              		.set	.LANCHOR7,. + 0
 1163              	Pwm_Led_Mode:
 1164 0000 00       		.space	1
 1165              		.section	.bss.Pwm_Servo_status,"aw",%nobits
 1166              		.set	.LANCHOR9,. + 0
 1169              	Pwm_Servo_status:
 1170 0000 00       		.space	1
 1171              		.section	.bss.Servo_timer,"aw",%nobits
 1172              		.align	1
 1173              		.set	.LANCHOR11,. + 0
 1176              	Servo_timer:
 1177 0000 0000     		.space	2
 1178              		.section	.bss.Target_Idle_Temp,"aw",%nobits
 1179              		.align	1
 1180              		.set	.LANCHOR2,. + 0
 1183              	Target_Idle_Temp:
 1184 0000 0000     		.space	2
 1185              		.section	.bss.Target_Run_Temp,"aw",%nobits
 1186              		.align	1
 1187              		.set	.LANCHOR0,. + 0
 1190              	Target_Run_Temp:
 1191 0000 0000     		.space	2
 1192              		.section	.bss.Target_Run_Time,"aw",%nobits
 1193              		.align	2
 1194              		.set	.LANCHOR1,. + 0
 1197              	Target_Run_Time:
 1198 0000 00000000 		.space	4
 1199              		.section	.bss.first_status.0,"aw",%nobits
 1200              		.set	.LANCHOR4,. + 0
 1203              	first_status.0:
 1204 0000 00       		.space	1
ARM GAS  C:\Users\jisu8\AppData\Local\Temp\ccfVxx9F.s 			page 32


 1205              		.section	.bss.first_target_flag,"aw",%nobits
 1206              		.set	.LANCHOR3,. + 0
 1209              	first_target_flag:
 1210 0000 00       		.space	1
 1211              		.text
 1212              	.Letext0:
 1213              		.file 2 "d:\\3.tools\\arm_gcc_toolchain\\arm-none-eabi\\include\\machine\\_default_types.h"
 1214              		.file 3 "d:\\3.tools\\arm_gcc_toolchain\\arm-none-eabi\\include\\sys\\_stdint.h"
 1215              		.file 4 "Drivers/CMSIS/Device/ST/STM32F0xx/Include/stm32f030x6.h"
 1216              		.file 5 "Core/Inc/vardef.h"
 1217              		.file 6 "Core/Inc/switch.h"
 1218              		.file 7 "Core/Inc/pwm.h"
ARM GAS  C:\Users\jisu8\AppData\Local\Temp\ccfVxx9F.s 			page 33


DEFINED SYMBOLS
                            *ABS*:00000000 pwm.c
C:\Users\jisu8\AppData\Local\Temp\ccfVxx9F.s:18     .text.Pwm_SubMode_Target_Set:00000000 $t
C:\Users\jisu8\AppData\Local\Temp\ccfVxx9F.s:23     .text.Pwm_SubMode_Target_Set:00000000 Pwm_SubMode_Target_Set
C:\Users\jisu8\AppData\Local\Temp\ccfVxx9F.s:43     .rodata.Pwm_SubMode_Target_Set:00000000 $d
C:\Users\jisu8\AppData\Local\Temp\ccfVxx9F.s:434    .text.Pwm_SubMode_Target_Set:000001a4 $d
C:\Users\jisu8\AppData\Local\Temp\ccfVxx9F.s:452    .text.Pwm_Peltier_Set_Duty:00000000 $t
C:\Users\jisu8\AppData\Local\Temp\ccfVxx9F.s:457    .text.Pwm_Peltier_Set_Duty:00000000 Pwm_Peltier_Set_Duty
C:\Users\jisu8\AppData\Local\Temp\ccfVxx9F.s:475    .text.Pwm_Peltier_Set_Duty:00000008 $d
C:\Users\jisu8\AppData\Local\Temp\ccfVxx9F.s:480    .text.Pwm_Heater_Set_Duty:00000000 $t
C:\Users\jisu8\AppData\Local\Temp\ccfVxx9F.s:485    .text.Pwm_Heater_Set_Duty:00000000 Pwm_Heater_Set_Duty
C:\Users\jisu8\AppData\Local\Temp\ccfVxx9F.s:503    .text.Pwm_Heater_Set_Duty:00000008 $d
C:\Users\jisu8\AppData\Local\Temp\ccfVxx9F.s:508    .text.Pwm_Servo_Set_Duty:00000000 $t
C:\Users\jisu8\AppData\Local\Temp\ccfVxx9F.s:513    .text.Pwm_Servo_Set_Duty:00000000 Pwm_Servo_Set_Duty
C:\Users\jisu8\AppData\Local\Temp\ccfVxx9F.s:531    .text.Pwm_Servo_Set_Duty:00000008 $d
C:\Users\jisu8\AppData\Local\Temp\ccfVxx9F.s:536    .text.Pwm_Fan_Set_Duty:00000000 $t
C:\Users\jisu8\AppData\Local\Temp\ccfVxx9F.s:541    .text.Pwm_Fan_Set_Duty:00000000 Pwm_Fan_Set_Duty
C:\Users\jisu8\AppData\Local\Temp\ccfVxx9F.s:559    .text.Pwm_Fan_Set_Duty:00000008 $d
C:\Users\jisu8\AppData\Local\Temp\ccfVxx9F.s:564    .text.Pwm_Control:00000000 $t
C:\Users\jisu8\AppData\Local\Temp\ccfVxx9F.s:569    .text.Pwm_Control:00000000 Pwm_Control
C:\Users\jisu8\AppData\Local\Temp\ccfVxx9F.s:882    .text.Pwm_Control:00000154 $d
C:\Users\jisu8\AppData\Local\Temp\ccfVxx9F.s:896    .text.Pwm_Output:00000000 $t
C:\Users\jisu8\AppData\Local\Temp\ccfVxx9F.s:902    .text.Pwm_Output:00000000 Pwm_Output
C:\Users\jisu8\AppData\Local\Temp\ccfVxx9F.s:1102   .text.Pwm_Output:000000dc $d
C:\Users\jisu8\AppData\Local\Temp\ccfVxx9F.s:1176   .bss.Servo_timer:00000000 Servo_timer
C:\Users\jisu8\AppData\Local\Temp\ccfVxx9F.s:1209   .bss.first_target_flag:00000000 first_target_flag
C:\Users\jisu8\AppData\Local\Temp\ccfVxx9F.s:1183   .bss.Target_Idle_Temp:00000000 Target_Idle_Temp
C:\Users\jisu8\AppData\Local\Temp\ccfVxx9F.s:1197   .bss.Target_Run_Time:00000000 Target_Run_Time
C:\Users\jisu8\AppData\Local\Temp\ccfVxx9F.s:1190   .bss.Target_Run_Temp:00000000 Target_Run_Temp
C:\Users\jisu8\AppData\Local\Temp\ccfVxx9F.s:1163   .bss.Pwm_Led_Mode:00000000 Pwm_Led_Mode
C:\Users\jisu8\AppData\Local\Temp\ccfVxx9F.s:1169   .bss.Pwm_Servo_status:00000000 Pwm_Servo_status
C:\Users\jisu8\AppData\Local\Temp\ccfVxx9F.s:1136   .bss.Pwm_Duty_Fan:00000000 Pwm_Duty_Fan
C:\Users\jisu8\AppData\Local\Temp\ccfVxx9F.s:1157   .bss.Pwm_Duty_Servo:00000000 Pwm_Duty_Servo
C:\Users\jisu8\AppData\Local\Temp\ccfVxx9F.s:1143   .bss.Pwm_Duty_Heater:00000000 Pwm_Duty_Heater
C:\Users\jisu8\AppData\Local\Temp\ccfVxx9F.s:1150   .bss.Pwm_Duty_Peltier:00000000 Pwm_Duty_Peltier
C:\Users\jisu8\AppData\Local\Temp\ccfVxx9F.s:1132   .bss.Pwm_Duty_Fan:00000000 $d
C:\Users\jisu8\AppData\Local\Temp\ccfVxx9F.s:1139   .bss.Pwm_Duty_Heater:00000000 $d
C:\Users\jisu8\AppData\Local\Temp\ccfVxx9F.s:1146   .bss.Pwm_Duty_Peltier:00000000 $d
C:\Users\jisu8\AppData\Local\Temp\ccfVxx9F.s:1153   .bss.Pwm_Duty_Servo:00000000 $d
C:\Users\jisu8\AppData\Local\Temp\ccfVxx9F.s:1164   .bss.Pwm_Led_Mode:00000000 $d
C:\Users\jisu8\AppData\Local\Temp\ccfVxx9F.s:1170   .bss.Pwm_Servo_status:00000000 $d
C:\Users\jisu8\AppData\Local\Temp\ccfVxx9F.s:1172   .bss.Servo_timer:00000000 $d
C:\Users\jisu8\AppData\Local\Temp\ccfVxx9F.s:1179   .bss.Target_Idle_Temp:00000000 $d
C:\Users\jisu8\AppData\Local\Temp\ccfVxx9F.s:1186   .bss.Target_Run_Temp:00000000 $d
C:\Users\jisu8\AppData\Local\Temp\ccfVxx9F.s:1193   .bss.Target_Run_Time:00000000 $d
C:\Users\jisu8\AppData\Local\Temp\ccfVxx9F.s:1203   .bss.first_status.0:00000000 first_status.0
C:\Users\jisu8\AppData\Local\Temp\ccfVxx9F.s:1204   .bss.first_status.0:00000000 $d
C:\Users\jisu8\AppData\Local\Temp\ccfVxx9F.s:1210   .bss.first_target_flag:00000000 $d

UNDEFINED SYMBOLS
switch_submode
switch_trg_temp
switch_trg_time
switch_idle_temp
Temp_Adc_TP
switch_mode
cup_in
ARM GAS  C:\Users\jisu8\AppData\Local\Temp\ccfVxx9F.s 			page 34


switch4_mode
