ARM GAS  C:\Users\jisu8\AppData\Local\Temp\ccnbQmF2.s 			page 1


   1              		.cpu cortex-m0
   2              		.eabi_attribute 20, 1
   3              		.eabi_attribute 21, 1
   4              		.eabi_attribute 23, 3
   5              		.eabi_attribute 24, 1
   6              		.eabi_attribute 25, 1
   7              		.eabi_attribute 26, 1
   8              		.eabi_attribute 30, 1
   9              		.eabi_attribute 34, 0
  10              		.eabi_attribute 18, 4
  11              		.file	"startup_stm32f030x6.c"
  12              		.text
  13              	.Ltext0:
  14              		.cfi_sections	.debug_frame
  15              		.section	.text.Reset_Handler,"ax",%progbits
  16              		.align	1
  17              		.global	Reset_Handler
  18              		.arch armv6s-m
  19              		.syntax unified
  20              		.code	16
  21              		.thumb_func
  22              		.fpu softvfp
  24              	Reset_Handler:
  25              	.LFB40:
  26              		.file 1 "startup_stm32f030x6.c"
   1:startup_stm32f030x6.c **** #include "stdint.h"
   2:startup_stm32f030x6.c **** #include "system_stm32f0xx.h"
   3:startup_stm32f030x6.c **** #include "stm32f0xx.h"
   4:startup_stm32f030x6.c **** #include "stm32f0xx_hal_def.h"
   5:startup_stm32f030x6.c **** #include "main.h"
   6:startup_stm32f030x6.c **** #include "os.h"
   7:startup_stm32f030x6.c **** 
   8:startup_stm32f030x6.c **** extern uint32_t _sidata;
   9:startup_stm32f030x6.c **** extern uint32_t _sdata;
  10:startup_stm32f030x6.c **** extern uint32_t _edata;
  11:startup_stm32f030x6.c **** extern uint32_t _sbss;
  12:startup_stm32f030x6.c **** extern uint32_t _ebss;
  13:startup_stm32f030x6.c **** extern uint32_t _estack;
  14:startup_stm32f030x6.c **** 
  15:startup_stm32f030x6.c **** extern void __libc_init_array();
  16:startup_stm32f030x6.c **** 
  17:startup_stm32f030x6.c **** void Reset_Handler()
  18:startup_stm32f030x6.c **** {
  27              		.loc 1 18 1 view -0
  28              		.cfi_startproc
  29              		@ args = 0, pretend = 0, frame = 0
  30              		@ frame_needed = 0, uses_anonymous_args = 0
  31 0000 10B5     		push	{r4, lr}
  32              	.LCFI0:
  33              		.cfi_def_cfa_offset 8
  34              		.cfi_offset 4, -8
  35              		.cfi_offset 14, -4
  19:startup_stm32f030x6.c ****     uint32_t *dataInit = &_sidata;
  36              		.loc 1 19 5 view .LVU1
  37              	.LVL0:
  20:startup_stm32f030x6.c ****     uint32_t *data = &_sdata;
  38              		.loc 1 20 5 view .LVU2
ARM GAS  C:\Users\jisu8\AppData\Local\Temp\ccnbQmF2.s 			page 2


  21:startup_stm32f030x6.c ****     while(data < &_edata)
  39              		.loc 1 21 5 view .LVU3
  20:startup_stm32f030x6.c ****     uint32_t *data = &_sdata;
  40              		.loc 1 20 15 is_stmt 0 view .LVU4
  41 0002 0B4B     		ldr	r3, .L7
  19:startup_stm32f030x6.c ****     uint32_t *dataInit = &_sidata;
  42              		.loc 1 19 15 view .LVU5
  43 0004 0B4A     		ldr	r2, .L7+4
  44              		.loc 1 21 10 view .LVU6
  45 0006 01E0     		b	.L2
  46              	.LVL1:
  47              	.L3:
  22:startup_stm32f030x6.c ****     {
  23:startup_stm32f030x6.c ****         *data++ = *dataInit++;
  48              		.loc 1 23 9 is_stmt 1 view .LVU7
  49              		.loc 1 23 19 is_stmt 0 view .LVU8
  50 0008 02CA     		ldmia	r2!, {r1}
  51              	.LVL2:
  52              		.loc 1 23 17 view .LVU9
  53 000a 02C3     		stmia	r3!, {r1}
  54              	.LVL3:
  55              	.L2:
  21:startup_stm32f030x6.c ****     while(data < &_edata)
  56              		.loc 1 21 10 is_stmt 1 view .LVU10
  57 000c 0A49     		ldr	r1, .L7+8
  58 000e 8B42     		cmp	r3, r1
  59 0010 FAD3     		bcc	.L3
  24:startup_stm32f030x6.c ****     }
  25:startup_stm32f030x6.c **** 
  26:startup_stm32f030x6.c ****     uint32_t *bss = &_sbss;
  60              		.loc 1 26 15 is_stmt 0 view .LVU11
  61 0012 0A4B     		ldr	r3, .L7+12
  62              	.LVL4:
  63              		.loc 1 26 15 view .LVU12
  64 0014 01E0     		b	.L4
  65              	.LVL5:
  66              	.L5:
  27:startup_stm32f030x6.c ****     while(bss < &_ebss)
  28:startup_stm32f030x6.c ****     {
  29:startup_stm32f030x6.c ****         *bss++ = 0;
  67              		.loc 1 29 9 is_stmt 1 view .LVU13
  68              		.loc 1 29 16 is_stmt 0 view .LVU14
  69 0016 0022     		movs	r2, #0
  70 0018 04C3     		stmia	r3!, {r2}
  71              	.LVL6:
  72              	.L4:
  27:startup_stm32f030x6.c ****     while(bss < &_ebss)
  73              		.loc 1 27 10 is_stmt 1 view .LVU15
  74 001a 094A     		ldr	r2, .L7+16
  75 001c 9342     		cmp	r3, r2
  76 001e FAD3     		bcc	.L5
  30:startup_stm32f030x6.c ****     }
  31:startup_stm32f030x6.c **** 
  32:startup_stm32f030x6.c ****     SystemInit(); 
  77              		.loc 1 32 5 view .LVU16
  78 0020 FFF7FEFF 		bl	SystemInit
  79              	.LVL7:
ARM GAS  C:\Users\jisu8\AppData\Local\Temp\ccnbQmF2.s 			page 3


  33:startup_stm32f030x6.c ****     __libc_init_array();
  80              		.loc 1 33 5 view .LVU17
  81 0024 FFF7FEFF 		bl	__libc_init_array
  82              	.LVL8:
  34:startup_stm32f030x6.c ****     main();
  83              		.loc 1 34 5 view .LVU18
  84 0028 FFF7FEFF 		bl	main
  85              	.LVL9:
  86              	.L6:
  35:startup_stm32f030x6.c **** 
  36:startup_stm32f030x6.c ****     while (1);
  87              		.loc 1 36 5 discriminator 1 view .LVU19
  88              		.loc 1 36 14 discriminator 1 view .LVU20
  89              		.loc 1 36 11 discriminator 1 view .LVU21
  90 002c FEE7     		b	.L6
  91              	.L8:
  92 002e C046     		.align	2
  93              	.L7:
  94 0030 00000000 		.word	_sdata
  95 0034 00000000 		.word	_sidata
  96 0038 00000000 		.word	_edata
  97 003c 00000000 		.word	_sbss
  98 0040 00000000 		.word	_ebss
  99              		.cfi_endproc
 100              	.LFE40:
 102              		.section	.text.Default_Handler,"ax",%progbits
 103              		.align	1
 104              		.global	Default_Handler
 105              		.syntax unified
 106              		.code	16
 107              		.thumb_func
 108              		.fpu softvfp
 110              	Default_Handler:
 111              	.LFB41:
  37:startup_stm32f030x6.c **** }
  38:startup_stm32f030x6.c **** 
  39:startup_stm32f030x6.c **** void Default_Handler(void)
  40:startup_stm32f030x6.c **** {
 112              		.loc 1 40 1 view -0
 113              		.cfi_startproc
 114              		@ Volatile: function does not return.
 115              		@ args = 0, pretend = 0, frame = 0
 116              		@ frame_needed = 0, uses_anonymous_args = 0
 117              		@ link register save eliminated.
 118              	.L10:
  41:startup_stm32f030x6.c ****     while (1);
 119              		.loc 1 41 5 discriminator 1 view .LVU23
 120              		.loc 1 41 14 discriminator 1 view .LVU24
 121              		.loc 1 41 11 discriminator 1 view .LVU25
 122 0000 FEE7     		b	.L10
 123              		.cfi_endproc
 124              	.LFE41:
 126              		.section	.text.NMI_Handler,"ax",%progbits
 127              		.align	1
 128              		.weak	NMI_Handler
 129              		.syntax unified
 130              		.code	16
ARM GAS  C:\Users\jisu8\AppData\Local\Temp\ccnbQmF2.s 			page 4


 131              		.thumb_func
 132              		.fpu softvfp
 134              	NMI_Handler:
 135              	.LFB45:
  42:startup_stm32f030x6.c **** }
  43:startup_stm32f030x6.c **** 
  44:startup_stm32f030x6.c **** void TIM16_Handler(void)
  45:startup_stm32f030x6.c **** {
  46:startup_stm32f030x6.c ****     HAL_TIM_IRQHandler(&htim16);
  47:startup_stm32f030x6.c **** }
  48:startup_stm32f030x6.c **** 
  49:startup_stm32f030x6.c **** void TIM17_Handler(void)
  50:startup_stm32f030x6.c **** {
  51:startup_stm32f030x6.c ****     HAL_TIM_IRQHandler(&htim17);
  52:startup_stm32f030x6.c **** }
  53:startup_stm32f030x6.c **** 
  54:startup_stm32f030x6.c **** void SystemTick_Handler(void)
  55:startup_stm32f030x6.c **** {
  56:startup_stm32f030x6.c ****     /* USER CODE BEGIN SysTick_IRQn 0 */
  57:startup_stm32f030x6.c **** 
  58:startup_stm32f030x6.c ****     /* USER CODE END SysTick_IRQn 0 */
  59:startup_stm32f030x6.c ****     HAL_IncTick();
  60:startup_stm32f030x6.c ****     /* USER CODE BEGIN SysTick_IRQn 1 */
  61:startup_stm32f030x6.c ****     Os_Handler_1ms();
  62:startup_stm32f030x6.c ****     /* USER CODE END SysTick_IRQn 1 */
  63:startup_stm32f030x6.c **** }
  64:startup_stm32f030x6.c **** 
  65:startup_stm32f030x6.c **** __weak void NMI_Handler(void)                          {Default_Handler();}
 136              		.loc 1 65 56 view -0
 137              		.cfi_startproc
 138              		@ args = 0, pretend = 0, frame = 0
 139              		@ frame_needed = 0, uses_anonymous_args = 0
 140 0000 10B5     		push	{r4, lr}
 141              	.LCFI1:
 142              		.cfi_def_cfa_offset 8
 143              		.cfi_offset 4, -8
 144              		.cfi_offset 14, -4
 145              		.loc 1 65 57 view .LVU27
 146 0002 FFF7FEFF 		bl	Default_Handler
 147              	.LVL10:
 148              		.cfi_endproc
 149              	.LFE45:
 151              		.section	.text.HardFault_Handler,"ax",%progbits
 152              		.align	1
 153              		.weak	HardFault_Handler
 154              		.syntax unified
 155              		.code	16
 156              		.thumb_func
 157              		.fpu softvfp
 159              	HardFault_Handler:
 160              	.LFB46:
  66:startup_stm32f030x6.c **** __weak void HardFault_Handler(void)                    {Default_Handler();}
 161              		.loc 1 66 56 view -0
 162              		.cfi_startproc
 163              		@ args = 0, pretend = 0, frame = 0
 164              		@ frame_needed = 0, uses_anonymous_args = 0
 165 0000 10B5     		push	{r4, lr}
ARM GAS  C:\Users\jisu8\AppData\Local\Temp\ccnbQmF2.s 			page 5


 166              	.LCFI2:
 167              		.cfi_def_cfa_offset 8
 168              		.cfi_offset 4, -8
 169              		.cfi_offset 14, -4
 170              		.loc 1 66 57 view .LVU29
 171 0002 FFF7FEFF 		bl	Default_Handler
 172              	.LVL11:
 173              		.cfi_endproc
 174              	.LFE46:
 176              		.section	.text.SVC_Handler,"ax",%progbits
 177              		.align	1
 178              		.weak	SVC_Handler
 179              		.syntax unified
 180              		.code	16
 181              		.thumb_func
 182              		.fpu softvfp
 184              	SVC_Handler:
 185              	.LFB47:
  67:startup_stm32f030x6.c **** __weak void SVC_Handler(void)                          {Default_Handler();}
 186              		.loc 1 67 56 view -0
 187              		.cfi_startproc
 188              		@ args = 0, pretend = 0, frame = 0
 189              		@ frame_needed = 0, uses_anonymous_args = 0
 190 0000 10B5     		push	{r4, lr}
 191              	.LCFI3:
 192              		.cfi_def_cfa_offset 8
 193              		.cfi_offset 4, -8
 194              		.cfi_offset 14, -4
 195              		.loc 1 67 57 view .LVU31
 196 0002 FFF7FEFF 		bl	Default_Handler
 197              	.LVL12:
 198              		.cfi_endproc
 199              	.LFE47:
 201              		.section	.text.PendSV_Handler,"ax",%progbits
 202              		.align	1
 203              		.weak	PendSV_Handler
 204              		.syntax unified
 205              		.code	16
 206              		.thumb_func
 207              		.fpu softvfp
 209              	PendSV_Handler:
 210              	.LFB48:
  68:startup_stm32f030x6.c **** __weak void PendSV_Handler(void)                       {Default_Handler();}
 211              		.loc 1 68 56 view -0
 212              		.cfi_startproc
 213              		@ args = 0, pretend = 0, frame = 0
 214              		@ frame_needed = 0, uses_anonymous_args = 0
 215 0000 10B5     		push	{r4, lr}
 216              	.LCFI4:
 217              		.cfi_def_cfa_offset 8
 218              		.cfi_offset 4, -8
 219              		.cfi_offset 14, -4
 220              		.loc 1 68 57 view .LVU33
 221 0002 FFF7FEFF 		bl	Default_Handler
 222              	.LVL13:
 223              		.cfi_endproc
 224              	.LFE48:
ARM GAS  C:\Users\jisu8\AppData\Local\Temp\ccnbQmF2.s 			page 6


 226              		.section	.text.WWDG_IRQHandler,"ax",%progbits
 227              		.align	1
 228              		.weak	WWDG_IRQHandler
 229              		.syntax unified
 230              		.code	16
 231              		.thumb_func
 232              		.fpu softvfp
 234              	WWDG_IRQHandler:
 235              	.LFB50:
  69:startup_stm32f030x6.c **** __weak void SysTick_Handler(void)                      {SystemTick_Handler();}
  70:startup_stm32f030x6.c **** __weak void WWDG_IRQHandler(void)                      {Default_Handler();}                
 236              		.loc 1 70 56 view -0
 237              		.cfi_startproc
 238              		@ args = 0, pretend = 0, frame = 0
 239              		@ frame_needed = 0, uses_anonymous_args = 0
 240 0000 10B5     		push	{r4, lr}
 241              	.LCFI5:
 242              		.cfi_def_cfa_offset 8
 243              		.cfi_offset 4, -8
 244              		.cfi_offset 14, -4
 245              		.loc 1 70 57 view .LVU35
 246 0002 FFF7FEFF 		bl	Default_Handler
 247              	.LVL14:
 248              		.cfi_endproc
 249              	.LFE50:
 251              		.section	.text.RTC_IRQHandler,"ax",%progbits
 252              		.align	1
 253              		.weak	RTC_IRQHandler
 254              		.syntax unified
 255              		.code	16
 256              		.thumb_func
 257              		.fpu softvfp
 259              	RTC_IRQHandler:
 260              	.LFB51:
  71:startup_stm32f030x6.c **** __weak void RTC_IRQHandler(void)                       {Default_Handler();}            
 261              		.loc 1 71 56 view -0
 262              		.cfi_startproc
 263              		@ args = 0, pretend = 0, frame = 0
 264              		@ frame_needed = 0, uses_anonymous_args = 0
 265 0000 10B5     		push	{r4, lr}
 266              	.LCFI6:
 267              		.cfi_def_cfa_offset 8
 268              		.cfi_offset 4, -8
 269              		.cfi_offset 14, -4
 270              		.loc 1 71 57 view .LVU37
 271 0002 FFF7FEFF 		bl	Default_Handler
 272              	.LVL15:
 273              		.cfi_endproc
 274              	.LFE51:
 276              		.section	.text.FLASH_IRQHandler,"ax",%progbits
 277              		.align	1
 278              		.weak	FLASH_IRQHandler
 279              		.syntax unified
 280              		.code	16
 281              		.thumb_func
 282              		.fpu softvfp
 284              	FLASH_IRQHandler:
ARM GAS  C:\Users\jisu8\AppData\Local\Temp\ccnbQmF2.s 			page 7


 285              	.LFB52:
  72:startup_stm32f030x6.c **** __weak void FLASH_IRQHandler(void)                     {Default_Handler();}                  
 286              		.loc 1 72 56 view -0
 287              		.cfi_startproc
 288              		@ args = 0, pretend = 0, frame = 0
 289              		@ frame_needed = 0, uses_anonymous_args = 0
 290 0000 10B5     		push	{r4, lr}
 291              	.LCFI7:
 292              		.cfi_def_cfa_offset 8
 293              		.cfi_offset 4, -8
 294              		.cfi_offset 14, -4
 295              		.loc 1 72 57 view .LVU39
 296 0002 FFF7FEFF 		bl	Default_Handler
 297              	.LVL16:
 298              		.cfi_endproc
 299              	.LFE52:
 301              		.section	.text.RCC_IRQHandler,"ax",%progbits
 302              		.align	1
 303              		.weak	RCC_IRQHandler
 304              		.syntax unified
 305              		.code	16
 306              		.thumb_func
 307              		.fpu softvfp
 309              	RCC_IRQHandler:
 310              	.LFB53:
  73:startup_stm32f030x6.c **** __weak void RCC_IRQHandler(void)                       {Default_Handler();}
 311              		.loc 1 73 56 view -0
 312              		.cfi_startproc
 313              		@ args = 0, pretend = 0, frame = 0
 314              		@ frame_needed = 0, uses_anonymous_args = 0
 315 0000 10B5     		push	{r4, lr}
 316              	.LCFI8:
 317              		.cfi_def_cfa_offset 8
 318              		.cfi_offset 4, -8
 319              		.cfi_offset 14, -4
 320              		.loc 1 73 57 view .LVU41
 321 0002 FFF7FEFF 		bl	Default_Handler
 322              	.LVL17:
 323              		.cfi_endproc
 324              	.LFE53:
 326              		.section	.text.EXTI0_1_IRQHandler,"ax",%progbits
 327              		.align	1
 328              		.weak	EXTI0_1_IRQHandler
 329              		.syntax unified
 330              		.code	16
 331              		.thumb_func
 332              		.fpu softvfp
 334              	EXTI0_1_IRQHandler:
 335              	.LFB54:
  74:startup_stm32f030x6.c **** __weak void EXTI0_1_IRQHandler(void)                   {Default_Handler();}
 336              		.loc 1 74 56 view -0
 337              		.cfi_startproc
 338              		@ args = 0, pretend = 0, frame = 0
 339              		@ frame_needed = 0, uses_anonymous_args = 0
 340 0000 10B5     		push	{r4, lr}
 341              	.LCFI9:
 342              		.cfi_def_cfa_offset 8
ARM GAS  C:\Users\jisu8\AppData\Local\Temp\ccnbQmF2.s 			page 8


 343              		.cfi_offset 4, -8
 344              		.cfi_offset 14, -4
 345              		.loc 1 74 57 view .LVU43
 346 0002 FFF7FEFF 		bl	Default_Handler
 347              	.LVL18:
 348              		.cfi_endproc
 349              	.LFE54:
 351              		.section	.text.EXTI2_3_IRQHandler,"ax",%progbits
 352              		.align	1
 353              		.weak	EXTI2_3_IRQHandler
 354              		.syntax unified
 355              		.code	16
 356              		.thumb_func
 357              		.fpu softvfp
 359              	EXTI2_3_IRQHandler:
 360              	.LFB55:
  75:startup_stm32f030x6.c **** __weak void EXTI2_3_IRQHandler(void)                   {Default_Handler();} 
 361              		.loc 1 75 56 view -0
 362              		.cfi_startproc
 363              		@ args = 0, pretend = 0, frame = 0
 364              		@ frame_needed = 0, uses_anonymous_args = 0
 365 0000 10B5     		push	{r4, lr}
 366              	.LCFI10:
 367              		.cfi_def_cfa_offset 8
 368              		.cfi_offset 4, -8
 369              		.cfi_offset 14, -4
 370              		.loc 1 75 57 view .LVU45
 371 0002 FFF7FEFF 		bl	Default_Handler
 372              	.LVL19:
 373              		.cfi_endproc
 374              	.LFE55:
 376              		.section	.text.EXTI4_15_IRQHandler,"ax",%progbits
 377              		.align	1
 378              		.weak	EXTI4_15_IRQHandler
 379              		.syntax unified
 380              		.code	16
 381              		.thumb_func
 382              		.fpu softvfp
 384              	EXTI4_15_IRQHandler:
 385              	.LFB56:
  76:startup_stm32f030x6.c **** __weak void EXTI4_15_IRQHandler(void)                  {Default_Handler();}       
 386              		.loc 1 76 56 view -0
 387              		.cfi_startproc
 388              		@ args = 0, pretend = 0, frame = 0
 389              		@ frame_needed = 0, uses_anonymous_args = 0
 390 0000 10B5     		push	{r4, lr}
 391              	.LCFI11:
 392              		.cfi_def_cfa_offset 8
 393              		.cfi_offset 4, -8
 394              		.cfi_offset 14, -4
 395              		.loc 1 76 57 view .LVU47
 396 0002 FFF7FEFF 		bl	Default_Handler
 397              	.LVL20:
 398              		.cfi_endproc
 399              	.LFE56:
 401              		.section	.text.DMA1_Channel1_IRQHandler,"ax",%progbits
 402              		.align	1
ARM GAS  C:\Users\jisu8\AppData\Local\Temp\ccnbQmF2.s 			page 9


 403              		.weak	DMA1_Channel1_IRQHandler
 404              		.syntax unified
 405              		.code	16
 406              		.thumb_func
 407              		.fpu softvfp
 409              	DMA1_Channel1_IRQHandler:
 410              	.LFB57:
  77:startup_stm32f030x6.c **** __weak void DMA1_Channel1_IRQHandler(void)             {Default_Handler();}      
 411              		.loc 1 77 56 view -0
 412              		.cfi_startproc
 413              		@ args = 0, pretend = 0, frame = 0
 414              		@ frame_needed = 0, uses_anonymous_args = 0
 415 0000 10B5     		push	{r4, lr}
 416              	.LCFI12:
 417              		.cfi_def_cfa_offset 8
 418              		.cfi_offset 4, -8
 419              		.cfi_offset 14, -4
 420              		.loc 1 77 57 view .LVU49
 421 0002 FFF7FEFF 		bl	Default_Handler
 422              	.LVL21:
 423              		.cfi_endproc
 424              	.LFE57:
 426              		.section	.text.DMA1_Channel2_3_IRQHandler,"ax",%progbits
 427              		.align	1
 428              		.weak	DMA1_Channel2_3_IRQHandler
 429              		.syntax unified
 430              		.code	16
 431              		.thumb_func
 432              		.fpu softvfp
 434              	DMA1_Channel2_3_IRQHandler:
 435              	.LFB58:
  78:startup_stm32f030x6.c **** __weak void DMA1_Channel2_3_IRQHandler(void)           {Default_Handler();}       
 436              		.loc 1 78 56 view -0
 437              		.cfi_startproc
 438              		@ args = 0, pretend = 0, frame = 0
 439              		@ frame_needed = 0, uses_anonymous_args = 0
 440 0000 10B5     		push	{r4, lr}
 441              	.LCFI13:
 442              		.cfi_def_cfa_offset 8
 443              		.cfi_offset 4, -8
 444              		.cfi_offset 14, -4
 445              		.loc 1 78 57 view .LVU51
 446 0002 FFF7FEFF 		bl	Default_Handler
 447              	.LVL22:
 448              		.cfi_endproc
 449              	.LFE58:
 451              		.section	.text.DMA1_Channel4_5_IRQHandler,"ax",%progbits
 452              		.align	1
 453              		.weak	DMA1_Channel4_5_IRQHandler
 454              		.syntax unified
 455              		.code	16
 456              		.thumb_func
 457              		.fpu softvfp
 459              	DMA1_Channel4_5_IRQHandler:
 460              	.LFB59:
  79:startup_stm32f030x6.c **** __weak void DMA1_Channel4_5_IRQHandler(void)           {Default_Handler();}        
 461              		.loc 1 79 56 view -0
ARM GAS  C:\Users\jisu8\AppData\Local\Temp\ccnbQmF2.s 			page 10


 462              		.cfi_startproc
 463              		@ args = 0, pretend = 0, frame = 0
 464              		@ frame_needed = 0, uses_anonymous_args = 0
 465 0000 10B5     		push	{r4, lr}
 466              	.LCFI14:
 467              		.cfi_def_cfa_offset 8
 468              		.cfi_offset 4, -8
 469              		.cfi_offset 14, -4
 470              		.loc 1 79 57 view .LVU53
 471 0002 FFF7FEFF 		bl	Default_Handler
 472              	.LVL23:
 473              		.cfi_endproc
 474              	.LFE59:
 476              		.section	.text.ADC1_IRQHandler,"ax",%progbits
 477              		.align	1
 478              		.weak	ADC1_IRQHandler
 479              		.syntax unified
 480              		.code	16
 481              		.thumb_func
 482              		.fpu softvfp
 484              	ADC1_IRQHandler:
 485              	.LFB60:
  80:startup_stm32f030x6.c **** __weak void ADC1_IRQHandler(void)                      {Default_Handler();}                  
 486              		.loc 1 80 56 view -0
 487              		.cfi_startproc
 488              		@ args = 0, pretend = 0, frame = 0
 489              		@ frame_needed = 0, uses_anonymous_args = 0
 490 0000 10B5     		push	{r4, lr}
 491              	.LCFI15:
 492              		.cfi_def_cfa_offset 8
 493              		.cfi_offset 4, -8
 494              		.cfi_offset 14, -4
 495              		.loc 1 80 57 view .LVU55
 496 0002 FFF7FEFF 		bl	Default_Handler
 497              	.LVL24:
 498              		.cfi_endproc
 499              	.LFE60:
 501              		.section	.text.TIM1_BRK_UP_TRG_COM_IRQHandler,"ax",%progbits
 502              		.align	1
 503              		.weak	TIM1_BRK_UP_TRG_COM_IRQHandler
 504              		.syntax unified
 505              		.code	16
 506              		.thumb_func
 507              		.fpu softvfp
 509              	TIM1_BRK_UP_TRG_COM_IRQHandler:
 510              	.LFB61:
  81:startup_stm32f030x6.c **** __weak void TIM1_BRK_UP_TRG_COM_IRQHandler(void)       {Default_Handler();}    
 511              		.loc 1 81 56 view -0
 512              		.cfi_startproc
 513              		@ args = 0, pretend = 0, frame = 0
 514              		@ frame_needed = 0, uses_anonymous_args = 0
 515 0000 10B5     		push	{r4, lr}
 516              	.LCFI16:
 517              		.cfi_def_cfa_offset 8
 518              		.cfi_offset 4, -8
 519              		.cfi_offset 14, -4
 520              		.loc 1 81 57 view .LVU57
ARM GAS  C:\Users\jisu8\AppData\Local\Temp\ccnbQmF2.s 			page 11


 521 0002 FFF7FEFF 		bl	Default_Handler
 522              	.LVL25:
 523              		.cfi_endproc
 524              	.LFE61:
 526              		.section	.text.TIM1_CC_IRQHandler,"ax",%progbits
 527              		.align	1
 528              		.weak	TIM1_CC_IRQHandler
 529              		.syntax unified
 530              		.code	16
 531              		.thumb_func
 532              		.fpu softvfp
 534              	TIM1_CC_IRQHandler:
 535              	.LFB62:
  82:startup_stm32f030x6.c **** __weak void TIM1_CC_IRQHandler(void)                   {Default_Handler();}               
 536              		.loc 1 82 56 view -0
 537              		.cfi_startproc
 538              		@ args = 0, pretend = 0, frame = 0
 539              		@ frame_needed = 0, uses_anonymous_args = 0
 540 0000 10B5     		push	{r4, lr}
 541              	.LCFI17:
 542              		.cfi_def_cfa_offset 8
 543              		.cfi_offset 4, -8
 544              		.cfi_offset 14, -4
 545              		.loc 1 82 57 view .LVU59
 546 0002 FFF7FEFF 		bl	Default_Handler
 547              	.LVL26:
 548              		.cfi_endproc
 549              	.LFE62:
 551              		.section	.text.TIM3_IRQHandler,"ax",%progbits
 552              		.align	1
 553              		.weak	TIM3_IRQHandler
 554              		.syntax unified
 555              		.code	16
 556              		.thumb_func
 557              		.fpu softvfp
 559              	TIM3_IRQHandler:
 560              	.LFB63:
  83:startup_stm32f030x6.c **** __weak void TIM3_IRQHandler(void)                      {Default_Handler();}                  
 561              		.loc 1 83 56 view -0
 562              		.cfi_startproc
 563              		@ args = 0, pretend = 0, frame = 0
 564              		@ frame_needed = 0, uses_anonymous_args = 0
 565 0000 10B5     		push	{r4, lr}
 566              	.LCFI18:
 567              		.cfi_def_cfa_offset 8
 568              		.cfi_offset 4, -8
 569              		.cfi_offset 14, -4
 570              		.loc 1 83 57 view .LVU61
 571 0002 FFF7FEFF 		bl	Default_Handler
 572              	.LVL27:
 573              		.cfi_endproc
 574              	.LFE63:
 576              		.section	.text.TIM14_IRQHandler,"ax",%progbits
 577              		.align	1
 578              		.weak	TIM14_IRQHandler
 579              		.syntax unified
 580              		.code	16
ARM GAS  C:\Users\jisu8\AppData\Local\Temp\ccnbQmF2.s 			page 12


 581              		.thumb_func
 582              		.fpu softvfp
 584              	TIM14_IRQHandler:
 585              	.LFB64:
  84:startup_stm32f030x6.c **** __weak void TIM14_IRQHandler(void)                     {Default_Handler();}               
 586              		.loc 1 84 56 view -0
 587              		.cfi_startproc
 588              		@ args = 0, pretend = 0, frame = 0
 589              		@ frame_needed = 0, uses_anonymous_args = 0
 590 0000 10B5     		push	{r4, lr}
 591              	.LCFI19:
 592              		.cfi_def_cfa_offset 8
 593              		.cfi_offset 4, -8
 594              		.cfi_offset 14, -4
 595              		.loc 1 84 57 view .LVU63
 596 0002 FFF7FEFF 		bl	Default_Handler
 597              	.LVL28:
 598              		.cfi_endproc
 599              	.LFE64:
 601              		.section	.text.I2C1_IRQHandler,"ax",%progbits
 602              		.align	1
 603              		.weak	I2C1_IRQHandler
 604              		.syntax unified
 605              		.code	16
 606              		.thumb_func
 607              		.fpu softvfp
 609              	I2C1_IRQHandler:
 610              	.LFB67:
  85:startup_stm32f030x6.c **** __weak void TIM16_IRQHandler(void)                     {TIM16_Handler();}               
  86:startup_stm32f030x6.c **** __weak void TIM17_IRQHandler(void)                     {TIM17_Handler();}               
  87:startup_stm32f030x6.c **** __weak void I2C1_IRQHandler(void)                      {Default_Handler();}             
 611              		.loc 1 87 56 view -0
 612              		.cfi_startproc
 613              		@ args = 0, pretend = 0, frame = 0
 614              		@ frame_needed = 0, uses_anonymous_args = 0
 615 0000 10B5     		push	{r4, lr}
 616              	.LCFI20:
 617              		.cfi_def_cfa_offset 8
 618              		.cfi_offset 4, -8
 619              		.cfi_offset 14, -4
 620              		.loc 1 87 57 view .LVU65
 621 0002 FFF7FEFF 		bl	Default_Handler
 622              	.LVL29:
 623              		.cfi_endproc
 624              	.LFE67:
 626              		.section	.text.SPI1_IRQHandler,"ax",%progbits
 627              		.align	1
 628              		.weak	SPI1_IRQHandler
 629              		.syntax unified
 630              		.code	16
 631              		.thumb_func
 632              		.fpu softvfp
 634              	SPI1_IRQHandler:
 635              	.LFB68:
  88:startup_stm32f030x6.c **** __weak void SPI1_IRQHandler(void)                      {Default_Handler();}               
 636              		.loc 1 88 56 view -0
 637              		.cfi_startproc
ARM GAS  C:\Users\jisu8\AppData\Local\Temp\ccnbQmF2.s 			page 13


 638              		@ args = 0, pretend = 0, frame = 0
 639              		@ frame_needed = 0, uses_anonymous_args = 0
 640 0000 10B5     		push	{r4, lr}
 641              	.LCFI21:
 642              		.cfi_def_cfa_offset 8
 643              		.cfi_offset 4, -8
 644              		.cfi_offset 14, -4
 645              		.loc 1 88 57 view .LVU67
 646 0002 FFF7FEFF 		bl	Default_Handler
 647              	.LVL30:
 648              		.cfi_endproc
 649              	.LFE68:
 651              		.section	.text.USART1_IRQHandler,"ax",%progbits
 652              		.align	1
 653              		.weak	USART1_IRQHandler
 654              		.syntax unified
 655              		.code	16
 656              		.thumb_func
 657              		.fpu softvfp
 659              	USART1_IRQHandler:
 660              	.LFB69:
  89:startup_stm32f030x6.c **** __weak void USART1_IRQHandler(void)                    {Default_Handler();}              
 661              		.loc 1 89 56 view -0
 662              		.cfi_startproc
 663              		@ args = 0, pretend = 0, frame = 0
 664              		@ frame_needed = 0, uses_anonymous_args = 0
 665 0000 10B5     		push	{r4, lr}
 666              	.LCFI22:
 667              		.cfi_def_cfa_offset 8
 668              		.cfi_offset 4, -8
 669              		.cfi_offset 14, -4
 670              		.loc 1 89 57 view .LVU69
 671 0002 FFF7FEFF 		bl	Default_Handler
 672              	.LVL31:
 673              		.cfi_endproc
 674              	.LFE69:
 676              		.section	.text.TIM16_Handler,"ax",%progbits
 677              		.align	1
 678              		.global	TIM16_Handler
 679              		.syntax unified
 680              		.code	16
 681              		.thumb_func
 682              		.fpu softvfp
 684              	TIM16_Handler:
 685              	.LFB42:
  45:startup_stm32f030x6.c ****     HAL_TIM_IRQHandler(&htim16);
 686              		.loc 1 45 1 view -0
 687              		.cfi_startproc
 688              		@ args = 0, pretend = 0, frame = 0
 689              		@ frame_needed = 0, uses_anonymous_args = 0
 690 0000 10B5     		push	{r4, lr}
 691              	.LCFI23:
 692              		.cfi_def_cfa_offset 8
 693              		.cfi_offset 4, -8
 694              		.cfi_offset 14, -4
  46:startup_stm32f030x6.c **** }
 695              		.loc 1 46 5 view .LVU71
ARM GAS  C:\Users\jisu8\AppData\Local\Temp\ccnbQmF2.s 			page 14


 696 0002 0248     		ldr	r0, .L34
 697 0004 FFF7FEFF 		bl	HAL_TIM_IRQHandler
 698              	.LVL32:
  47:startup_stm32f030x6.c **** 
 699              		.loc 1 47 1 is_stmt 0 view .LVU72
 700              		@ sp needed
 701 0008 10BD     		pop	{r4, pc}
 702              	.L35:
 703 000a C046     		.align	2
 704              	.L34:
 705 000c 00000000 		.word	htim16
 706              		.cfi_endproc
 707              	.LFE42:
 709              		.section	.text.TIM16_IRQHandler,"ax",%progbits
 710              		.align	1
 711              		.weak	TIM16_IRQHandler
 712              		.syntax unified
 713              		.code	16
 714              		.thumb_func
 715              		.fpu softvfp
 717              	TIM16_IRQHandler:
 718              	.LFB65:
  85:startup_stm32f030x6.c **** __weak void TIM17_IRQHandler(void)                     {TIM17_Handler();}               
 719              		.loc 1 85 56 is_stmt 1 view -0
 720              		.cfi_startproc
 721              		@ args = 0, pretend = 0, frame = 0
 722              		@ frame_needed = 0, uses_anonymous_args = 0
 723 0000 10B5     		push	{r4, lr}
 724              	.LCFI24:
 725              		.cfi_def_cfa_offset 8
 726              		.cfi_offset 4, -8
 727              		.cfi_offset 14, -4
  85:startup_stm32f030x6.c **** __weak void TIM17_IRQHandler(void)                     {TIM17_Handler();}               
 728              		.loc 1 85 57 view .LVU74
 729 0002 FFF7FEFF 		bl	TIM16_Handler
 730              	.LVL33:
  85:startup_stm32f030x6.c **** __weak void TIM17_IRQHandler(void)                     {TIM17_Handler();}               
 731              		.loc 1 85 73 is_stmt 0 view .LVU75
 732              		@ sp needed
 733 0006 10BD     		pop	{r4, pc}
 734              		.cfi_endproc
 735              	.LFE65:
 737              		.section	.text.TIM17_Handler,"ax",%progbits
 738              		.align	1
 739              		.global	TIM17_Handler
 740              		.syntax unified
 741              		.code	16
 742              		.thumb_func
 743              		.fpu softvfp
 745              	TIM17_Handler:
 746              	.LFB43:
  50:startup_stm32f030x6.c ****     HAL_TIM_IRQHandler(&htim17);
 747              		.loc 1 50 1 is_stmt 1 view -0
 748              		.cfi_startproc
 749              		@ args = 0, pretend = 0, frame = 0
 750              		@ frame_needed = 0, uses_anonymous_args = 0
 751 0000 10B5     		push	{r4, lr}
ARM GAS  C:\Users\jisu8\AppData\Local\Temp\ccnbQmF2.s 			page 15


 752              	.LCFI25:
 753              		.cfi_def_cfa_offset 8
 754              		.cfi_offset 4, -8
 755              		.cfi_offset 14, -4
  51:startup_stm32f030x6.c **** }
 756              		.loc 1 51 5 view .LVU77
 757 0002 0248     		ldr	r0, .L38
 758 0004 FFF7FEFF 		bl	HAL_TIM_IRQHandler
 759              	.LVL34:
  52:startup_stm32f030x6.c **** 
 760              		.loc 1 52 1 is_stmt 0 view .LVU78
 761              		@ sp needed
 762 0008 10BD     		pop	{r4, pc}
 763              	.L39:
 764 000a C046     		.align	2
 765              	.L38:
 766 000c 00000000 		.word	htim17
 767              		.cfi_endproc
 768              	.LFE43:
 770              		.section	.text.TIM17_IRQHandler,"ax",%progbits
 771              		.align	1
 772              		.weak	TIM17_IRQHandler
 773              		.syntax unified
 774              		.code	16
 775              		.thumb_func
 776              		.fpu softvfp
 778              	TIM17_IRQHandler:
 779              	.LFB66:
  86:startup_stm32f030x6.c **** __weak void I2C1_IRQHandler(void)                      {Default_Handler();}             
 780              		.loc 1 86 56 is_stmt 1 view -0
 781              		.cfi_startproc
 782              		@ args = 0, pretend = 0, frame = 0
 783              		@ frame_needed = 0, uses_anonymous_args = 0
 784 0000 10B5     		push	{r4, lr}
 785              	.LCFI26:
 786              		.cfi_def_cfa_offset 8
 787              		.cfi_offset 4, -8
 788              		.cfi_offset 14, -4
  86:startup_stm32f030x6.c **** __weak void I2C1_IRQHandler(void)                      {Default_Handler();}             
 789              		.loc 1 86 57 view .LVU80
 790 0002 FFF7FEFF 		bl	TIM17_Handler
 791              	.LVL35:
  86:startup_stm32f030x6.c **** __weak void I2C1_IRQHandler(void)                      {Default_Handler();}             
 792              		.loc 1 86 73 is_stmt 0 view .LVU81
 793              		@ sp needed
 794 0006 10BD     		pop	{r4, pc}
 795              		.cfi_endproc
 796              	.LFE66:
 798              		.section	.text.SystemTick_Handler,"ax",%progbits
 799              		.align	1
 800              		.global	SystemTick_Handler
 801              		.syntax unified
 802              		.code	16
 803              		.thumb_func
 804              		.fpu softvfp
 806              	SystemTick_Handler:
 807              	.LFB44:
ARM GAS  C:\Users\jisu8\AppData\Local\Temp\ccnbQmF2.s 			page 16


  55:startup_stm32f030x6.c ****     /* USER CODE BEGIN SysTick_IRQn 0 */
 808              		.loc 1 55 1 is_stmt 1 view -0
 809              		.cfi_startproc
 810              		@ args = 0, pretend = 0, frame = 0
 811              		@ frame_needed = 0, uses_anonymous_args = 0
 812 0000 10B5     		push	{r4, lr}
 813              	.LCFI27:
 814              		.cfi_def_cfa_offset 8
 815              		.cfi_offset 4, -8
 816              		.cfi_offset 14, -4
  59:startup_stm32f030x6.c ****     /* USER CODE BEGIN SysTick_IRQn 1 */
 817              		.loc 1 59 5 view .LVU83
 818 0002 FFF7FEFF 		bl	HAL_IncTick
 819              	.LVL36:
  61:startup_stm32f030x6.c ****     /* USER CODE END SysTick_IRQn 1 */
 820              		.loc 1 61 5 view .LVU84
 821 0006 FFF7FEFF 		bl	Os_Handler_1ms
 822              	.LVL37:
  63:startup_stm32f030x6.c **** 
 823              		.loc 1 63 1 is_stmt 0 view .LVU85
 824              		@ sp needed
 825 000a 10BD     		pop	{r4, pc}
 826              		.cfi_endproc
 827              	.LFE44:
 829              		.section	.text.SysTick_Handler,"ax",%progbits
 830              		.align	1
 831              		.weak	SysTick_Handler
 832              		.syntax unified
 833              		.code	16
 834              		.thumb_func
 835              		.fpu softvfp
 837              	SysTick_Handler:
 838              	.LFB49:
  69:startup_stm32f030x6.c **** __weak void WWDG_IRQHandler(void)                      {Default_Handler();}                
 839              		.loc 1 69 56 is_stmt 1 view -0
 840              		.cfi_startproc
 841              		@ args = 0, pretend = 0, frame = 0
 842              		@ frame_needed = 0, uses_anonymous_args = 0
 843 0000 10B5     		push	{r4, lr}
 844              	.LCFI28:
 845              		.cfi_def_cfa_offset 8
 846              		.cfi_offset 4, -8
 847              		.cfi_offset 14, -4
  69:startup_stm32f030x6.c **** __weak void WWDG_IRQHandler(void)                      {Default_Handler();}                
 848              		.loc 1 69 57 view .LVU87
 849 0002 FFF7FEFF 		bl	SystemTick_Handler
 850              	.LVL38:
  69:startup_stm32f030x6.c **** __weak void WWDG_IRQHandler(void)                      {Default_Handler();}                
 851              		.loc 1 69 78 is_stmt 0 view .LVU88
 852              		@ sp needed
 853 0006 10BD     		pop	{r4, pc}
 854              		.cfi_endproc
 855              	.LFE49:
 857              		.global	VectorTable
 858              		.section	.isr_vector,"aw"
 859              		.align	2
 862              	VectorTable:
ARM GAS  C:\Users\jisu8\AppData\Local\Temp\ccnbQmF2.s 			page 17


 863 0000 00000000 		.word	_estack
 864 0004 00000000 		.word	Reset_Handler
 865 0008 00000000 		.word	NMI_Handler
 866 000c 00000000 		.word	HardFault_Handler
 867 0010 00000000 		.word	0
 868 0014 00000000 		.word	0
 869 0018 00000000 		.word	0
 870 001c 00000000 		.word	0
 871 0020 00000000 		.word	0
 872 0024 00000000 		.word	0
 873 0028 00000000 		.word	0
 874 002c 00000000 		.word	SVC_Handler
 875 0030 00000000 		.word	0
 876 0034 00000000 		.word	0
 877 0038 00000000 		.word	PendSV_Handler
 878 003c 00000000 		.word	SysTick_Handler
 879 0040 00000000 		.word	WWDG_IRQHandler
 880 0044 00000000 		.word	0
 881 0048 00000000 		.word	RTC_IRQHandler
 882 004c 00000000 		.word	FLASH_IRQHandler
 883 0050 00000000 		.word	RCC_IRQHandler
 884 0054 00000000 		.word	EXTI0_1_IRQHandler
 885 0058 00000000 		.word	EXTI2_3_IRQHandler
 886 005c 00000000 		.word	EXTI4_15_IRQHandler
 887 0060 00000000 		.word	0
 888 0064 00000000 		.word	DMA1_Channel1_IRQHandler
 889 0068 00000000 		.word	DMA1_Channel2_3_IRQHandler
 890 006c 00000000 		.word	DMA1_Channel4_5_IRQHandler
 891 0070 00000000 		.word	ADC1_IRQHandler
 892 0074 00000000 		.word	TIM1_BRK_UP_TRG_COM_IRQHandler
 893 0078 00000000 		.word	TIM1_CC_IRQHandler
 894 007c 00000000 		.word	0
 895 0080 00000000 		.word	TIM3_IRQHandler
 896 0084 00000000 		.word	0
 897 0088 00000000 		.word	0
 898 008c 00000000 		.word	TIM14_IRQHandler
 899 0090 00000000 		.word	0
 900 0094 00000000 		.word	TIM16_IRQHandler
 901 0098 00000000 		.word	TIM17_IRQHandler
 902 009c 00000000 		.word	I2C1_IRQHandler
 903 00a0 00000000 		.word	0
 904 00a4 00000000 		.word	SPI1_IRQHandler
 905 00a8 00000000 		.word	0
 906 00ac 00000000 		.word	USART1_IRQHandler
 907 00b0 00000000 		.word	0
 908 00b4 00000000 		.word	0
 909 00b8 00000000 		.word	0
 910 00bc 00000000 		.word	0
 911              		.text
 912              	.Letext0:
 913              		.file 2 "d:\\3.tools\\arm_gcc_toolchain\\20_q4_major\\arm-none-eabi\\include\\machine\\_default_ty
 914              		.file 3 "d:\\3.tools\\arm_gcc_toolchain\\20_q4_major\\arm-none-eabi\\include\\sys\\_stdint.h"
 915              		.file 4 "Drivers/CMSIS/Device/ST/STM32F0xx/Include/stm32f030x6.h"
 916              		.file 5 "Drivers/STM32F0xx_HAL_Driver/Inc/stm32f0xx_hal_def.h"
 917              		.file 6 "Drivers/STM32F0xx_HAL_Driver/Inc/stm32f0xx_hal_dma.h"
 918              		.file 7 "Drivers/STM32F0xx_HAL_Driver/Inc/stm32f0xx_hal_tim.h"
 919              		.file 8 "Core/Inc/main.h"
ARM GAS  C:\Users\jisu8\AppData\Local\Temp\ccnbQmF2.s 			page 18


 920              		.file 9 "Drivers/STM32F0xx_HAL_Driver/Inc/stm32f0xx_hal.h"
 921              		.file 10 "Core/Inc/os.h"
 922              		.file 11 "Drivers/CMSIS/Device/ST/STM32F0xx/Include/system_stm32f0xx.h"
ARM GAS  C:\Users\jisu8\AppData\Local\Temp\ccnbQmF2.s 			page 19

